
firmware.elf:     file format elf32-littleriscv

Sections:
Idx Name          Size      VMA       LMA       File off  Algn
  0 .text         00001254  00000000  00000000  000000b4  2**1
                  CONTENTS, ALLOC, LOAD, CODE
  1 .rodata       0000017c  00001254  00001254  00001308  2**2
                  CONTENTS, ALLOC, LOAD, READONLY, DATA
  2 .srodata      0000000c  000013d0  000013d0  00001484  2**2
                  CONTENTS, ALLOC, LOAD, READONLY, DATA
  3 .data         00000028  01000000  000013dc  00001490  2**2
                  CONTENTS, ALLOC, LOAD, DATA
  4 .bss          00000108  01000028  00001404  000014b8  2**2
                  ALLOC
  5 .debug_info   00003c54  00000000  00000000  000014b8  2**0
                  CONTENTS, READONLY, DEBUGGING, OCTETS
  6 .debug_abbrev 00001528  00000000  00000000  0000510c  2**0
                  CONTENTS, READONLY, DEBUGGING, OCTETS
  7 .debug_loclists 00001c06  00000000  00000000  00006634  2**0
                  CONTENTS, READONLY, DEBUGGING, OCTETS
  8 .debug_aranges 00000230  00000000  00000000  00008240  2**3
                  CONTENTS, READONLY, DEBUGGING, OCTETS
  9 .debug_macro  000041cc  00000000  00000000  00008470  2**0
                  CONTENTS, READONLY, DEBUGGING, OCTETS
 10 .debug_line   00004504  00000000  00000000  0000c63c  2**0
                  CONTENTS, READONLY, DEBUGGING, OCTETS
 11 .debug_str    0000ee83  00000000  00000000  00010b40  2**0
                  CONTENTS, READONLY, DEBUGGING, OCTETS
 12 .debug_line_str 00000c53  00000000  00000000  0001f9c3  2**0
                  CONTENTS, READONLY, DEBUGGING, OCTETS
 13 .comment      00000018  00000000  00000000  00020616  2**0
                  CONTENTS, READONLY
 14 .riscv.attributes 00000048  00000000  00000000  0002062e  2**0
                  CONTENTS, READONLY
 15 .debug_rnglists 00000270  00000000  00000000  00020676  2**0
                  CONTENTS, READONLY, DEBUGGING, OCTETS

Disassembly of section .text:

00000000 <_ftext>:
#define MIE_MEIE 	0x800

	.global _start
_start:
	j reset_vector
       0:	a009                	j	2 <reset_vector>

00000002 <reset_vector>:

reset_vector:
	la sp, _fstack
       2:	01002117          	auipc	sp,0x1002
       6:	ffe10113          	addi	sp,sp,-2 # 1002000 <_fstack>
	la t0, trap_vector
       a:	00000297          	auipc	t0,0x0
       e:	06028293          	addi	t0,t0,96 # 6a <trap_vector>
	csrw mtvec, t0
      12:	30529073          	csrw	mtvec,t0

	// initialize .data
	la t0, _fdata
      16:	01000297          	auipc	t0,0x1000
      1a:	fea28293          	addi	t0,t0,-22 # 1000000 <__stdio>
	la t1, _edata
      1e:	01000317          	auipc	t1,0x1000
      22:	00a30313          	addi	t1,t1,10 # 1000028 <buf_w>
	la t2, _fdata_rom
      26:	00001397          	auipc	t2,0x1
      2a:	3b638393          	addi	t2,t2,950 # 13dc <_fdata_rom>
1:	beq t0, t1, 2f
      2e:	00628963          	beq	t0,t1,40 <reset_vector+0x3e>
	lw t3, 0(t2)
      32:	0003ae03          	lw	t3,0(t2)
	sw t3, 0(t0)
      36:	01c2a023          	sw	t3,0(t0)
	addi t0, t0, 4
      3a:	0291                	addi	t0,t0,4
	addi t2, t2, 4
      3c:	0391                	addi	t2,t2,4
	j 1b
      3e:	bfc5                	j	2e <reset_vector+0x2c>
2:

	// initialize .bss
	la t0, _fbss
      40:	01000297          	auipc	t0,0x1000
      44:	fe828293          	addi	t0,t0,-24 # 1000028 <buf_w>
	la t1, _ebss
      48:	01000317          	auipc	t1,0x1000
      4c:	0e830313          	addi	t1,t1,232 # 1000130 <_ebss>
1:	beq t0, t1, 3f
      50:	00628663          	beq	t0,t1,5c <reset_vector+0x5a>
	sw zero, 0(t0)
      54:	0002a023          	sw	zero,0(t0)
	addi t0, t0, 4
      58:	0291                	addi	t0,t0,4
	j 1b
      5a:	bfdd                	j	50 <reset_vector+0x4e>
3:
	// enable external interrupts
	li t0, MIE_MEIE
      5c:	6285                	lui	t0,0x1
      5e:	80028293          	addi	t0,t0,-2048 # 800 <__i_vfprintf+0x204>
	csrs mie, t0
      62:	3042a073          	csrs	mie,t0

	call main
      66:	2989                	jal	4b8 <main>
1:	j 1b
      68:	a001                	j	68 <reset_vector+0x66>

0000006a <trap_vector>:

trap_vector:
	addi sp, sp, -16*4
      6a:	7139                	addi	sp,sp,-64
	sw ra,  0*4(sp)
      6c:	c006                	sw	ra,0(sp)
	sw t0,  1*4(sp)
      6e:	c216                	sw	t0,4(sp)
	sw t1,  2*4(sp)
      70:	c41a                	sw	t1,8(sp)
	sw t2,  3*4(sp)
      72:	c61e                	sw	t2,12(sp)
	sw a0,  4*4(sp)
      74:	c82a                	sw	a0,16(sp)
	sw a1,  5*4(sp)
      76:	ca2e                	sw	a1,20(sp)
	sw a2,  6*4(sp)
      78:	cc32                	sw	a2,24(sp)
	sw a3,  7*4(sp)
      7a:	ce36                	sw	a3,28(sp)
	sw a4,  8*4(sp)
      7c:	d03a                	sw	a4,32(sp)
	sw a5,  9*4(sp)
      7e:	d23e                	sw	a5,36(sp)
	sw a6, 10*4(sp)
      80:	d442                	sw	a6,40(sp)
	sw a7, 11*4(sp)
      82:	d646                	sw	a7,44(sp)
	sw t3, 12*4(sp)
      84:	d872                	sw	t3,48(sp)
	sw t4, 13*4(sp)
      86:	da76                	sw	t4,52(sp)
	sw t5, 14*4(sp)
      88:	dc7a                	sw	t5,56(sp)
	sw t6, 15*4(sp)
      8a:	de7e                	sw	t6,60(sp)
	call isr
      8c:	1c6010ef          	jal	1252 <isr>
	lw ra,  0*4(sp)
      90:	4082                	lw	ra,0(sp)
	lw t0,  1*4(sp)
      92:	4292                	lw	t0,4(sp)
	lw t1,  2*4(sp)
      94:	4322                	lw	t1,8(sp)
	lw t2,  3*4(sp)
      96:	43b2                	lw	t2,12(sp)
	lw a0,  4*4(sp)
      98:	4542                	lw	a0,16(sp)
	lw a1,  5*4(sp)
      9a:	45d2                	lw	a1,20(sp)
	lw a2,  6*4(sp)
      9c:	4662                	lw	a2,24(sp)
	lw a3,  7*4(sp)
      9e:	46f2                	lw	a3,28(sp)
	lw a4,  8*4(sp)
      a0:	5702                	lw	a4,32(sp)
	lw a5,  9*4(sp)
      a2:	5792                	lw	a5,36(sp)
	lw a6, 10*4(sp)
      a4:	5822                	lw	a6,40(sp)
	lw a7, 11*4(sp)
      a6:	58b2                	lw	a7,44(sp)
	lw t3, 12*4(sp)
      a8:	5e42                	lw	t3,48(sp)
	lw t4, 13*4(sp)
      aa:	5ed2                	lw	t4,52(sp)
	lw t5, 14*4(sp)
      ac:	5f62                	lw	t5,56(sp)
	lw t6, 15*4(sp)
      ae:	5ff2                	lw	t6,60(sp)
	addi sp, sp, 16*4
      b0:	6121                	addi	sp,sp,64
	mret
      b2:	30200073          	mret

000000b6 <dump_bytes>:

extern unsigned int _ftext, _edata_rom;

#define NUMBER_OF_BYTES_ON_A_LINE 16
void dump_bytes(unsigned int *ptr, int count, unsigned long addr)
{
      b6:	715d                	addi	sp,sp,-80
	uint32_t *dptr = (uint32_t *)ptr;
	char data[NUMBER_OF_BYTES_ON_A_LINE];
	int line_bytes = 0, i = 0;


	fputs("Memory dump:", stdout);
      b8:	6785                	lui	a5,0x1
{
      ba:	c2a6                	sw	s1,68(sp)
      bc:	84ae                	mv	s1,a1
	fputs("Memory dump:", stdout);
      be:	3d87a583          	lw	a1,984(a5) # 13d8 <stdout>
{
      c2:	c0ca                	sw	s2,64(sp)
      c4:	892a                	mv	s2,a0
	fputs("Memory dump:", stdout);
      c6:	6505                	lui	a0,0x1
      c8:	25850513          	addi	a0,a0,600 # 1258 <_frodata>
{
      cc:	de4e                	sw	s3,60(sp)
      ce:	da56                	sw	s5,52(sp)
      d0:	d85a                	sw	s6,48(sp)
      d2:	d65e                	sw	s7,44(sp)
      d4:	d462                	sw	s8,40(sp)
      d6:	c686                	sw	ra,76(sp)
      d8:	c4a2                	sw	s0,72(sp)
      da:	dc52                	sw	s4,56(sp)
      dc:	d266                	sw	s9,36(sp)
      de:	d06a                	sw	s10,32(sp)
      e0:	ce6e                	sw	s11,28(sp)
      e2:	89b2                	mv	s3,a2
	while (count > 0) {
		line_bytes =
      e4:	4ac1                	li	s5,16
	fputs("Memory dump:", stdout);
      e6:	2931                	jal	502 <fputs>
			(count > NUMBER_OF_BYTES_ON_A_LINE)?
				NUMBER_OF_BYTES_ON_A_LINE : count;
		for (i = 0; i < line_bytes; i+=4){
			*((uint32_t*)&data[i]) = *(dptr++);
      e8:	8b0a                	mv	s6,sp
		printf("\n0x%08lx  ", addr);
		for (i = 0; i < line_bytes; i++)
			printf("%02x ", (unsigned char)data[i]);

		for (; i < NUMBER_OF_BYTES_ON_A_LINE; i++)
			printf("   ");
      ea:	6c05                	lui	s8,0x1

		printf(" ");
      ec:	6b85                	lui	s7,0x1
	while (count > 0) {
      ee:	02904463          	bgtz	s1,116 <dump_bytes+0x60>

		count -= line_bytes;
		addr += line_bytes;
	}
	printf("\n");
}
      f2:	4426                	lw	s0,72(sp)
      f4:	40b6                	lw	ra,76(sp)
      f6:	4496                	lw	s1,68(sp)
      f8:	4906                	lw	s2,64(sp)
      fa:	59f2                	lw	s3,60(sp)
      fc:	5a62                	lw	s4,56(sp)
      fe:	5ad2                	lw	s5,52(sp)
     100:	5b42                	lw	s6,48(sp)
     102:	5bb2                	lw	s7,44(sp)
     104:	5c22                	lw	s8,40(sp)
     106:	5c92                	lw	s9,36(sp)
     108:	5d02                	lw	s10,32(sp)
     10a:	4df2                	lw	s11,28(sp)
	printf("\n");
     10c:	6505                	lui	a0,0x1
     10e:	28c50513          	addi	a0,a0,652 # 128c <_frodata+0x34>
}
     112:	6161                	addi	sp,sp,80
	printf("\n");
     114:	a135                	j	540 <printf>
		line_bytes =
     116:	8426                	mv	s0,s1
     118:	009ad363          	bge	s5,s1,11e <dump_bytes+0x68>
     11c:	4441                	li	s0,16
		for (i = 0; i < line_bytes; i+=4){
     11e:	4781                	li	a5,0
			*((uint32_t*)&data[i]) = *(dptr++);
     120:	00f906b3          	add	a3,s2,a5
     124:	4294                	lw	a3,0(a3)
     126:	00fb0733          	add	a4,s6,a5
		for (i = 0; i < line_bytes; i+=4){
     12a:	0791                	addi	a5,a5,4
			*((uint32_t*)&data[i]) = *(dptr++);
     12c:	c314                	sw	a3,0(a4)
		for (i = 0; i < line_bytes; i+=4){
     12e:	fe87c9e3          	blt	a5,s0,120 <dump_bytes+0x6a>
     132:	fff40793          	addi	a5,s0,-1
		printf("\n0x%08lx  ", addr);
     136:	6505                	lui	a0,0x1
     138:	9bf1                	andi	a5,a5,-4
     13a:	0911                	addi	s2,s2,4
     13c:	85ce                	mv	a1,s3
     13e:	26850513          	addi	a0,a0,616 # 1268 <_frodata+0x10>
     142:	993e                	add	s2,s2,a5
		for (i = 0; i < line_bytes; i++)
     144:	4a01                	li	s4,0
		printf("\n0x%08lx  ", addr);
     146:	2eed                	jal	540 <printf>
			printf("%02x ", (unsigned char)data[i]);
     148:	6c85                	lui	s9,0x1
     14a:	014b07b3          	add	a5,s6,s4
     14e:	0007c583          	lbu	a1,0(a5)
     152:	274c8513          	addi	a0,s9,628 # 1274 <_frodata+0x1c>
		for (i = 0; i < line_bytes; i++)
     156:	0a05                	addi	s4,s4,1
			printf("%02x ", (unsigned char)data[i]);
     158:	26e5                	jal	540 <printf>
		for (i = 0; i < line_bytes; i++)
     15a:	ff4418e3          	bne	s0,s4,14a <dump_bytes+0x94>
     15e:	8a22                	mv	s4,s0
		for (; i < NUMBER_OF_BYTES_ON_A_LINE; i++)
     160:	055a1063          	bne	s4,s5,1a0 <dump_bytes+0xea>
		printf(" ");
     164:	280b8513          	addi	a0,s7,640 # 1280 <_frodata+0x28>
     168:	2ee1                	jal	540 <printf>
		for (i = 0; i<line_bytes; i++) {
     16a:	4a01                	li	s4,0
			if ((data[i] < 0x20) || (data[i] > 0x7e))
     16c:	05e00c93          	li	s9,94
				printf("%c", data[i]);
     170:	6d05                	lui	s10,0x1
				printf(".");
     172:	6d85                	lui	s11,0x1
			if ((data[i] < 0x20) || (data[i] > 0x7e))
     174:	014b07b3          	add	a5,s6,s4
     178:	0007c583          	lbu	a1,0(a5)
     17c:	fe058793          	addi	a5,a1,-32
     180:	0ff7f793          	zext.b	a5,a5
     184:	02fcf363          	bgeu	s9,a5,1aa <dump_bytes+0xf4>
				printf(".");
     188:	284d8513          	addi	a0,s11,644 # 1284 <_frodata+0x2c>
     18c:	2e55                	jal	540 <printf>
		for (i = 0; i<line_bytes; i++) {
     18e:	0a05                	addi	s4,s4,1
     190:	ff4412e3          	bne	s0,s4,174 <dump_bytes+0xbe>
     194:	8a22                	mv	s4,s0
		for (; i < NUMBER_OF_BYTES_ON_A_LINE; i++)
     196:	015a1e63          	bne	s4,s5,1b2 <dump_bytes+0xfc>
		count -= line_bytes;
     19a:	8c81                	sub	s1,s1,s0
		addr += line_bytes;
     19c:	99a2                	add	s3,s3,s0
     19e:	bf81                	j	ee <dump_bytes+0x38>
			printf("   ");
     1a0:	27cc0513          	addi	a0,s8,636 # 127c <_frodata+0x24>
     1a4:	2e71                	jal	540 <printf>
		for (; i < NUMBER_OF_BYTES_ON_A_LINE; i++)
     1a6:	0a05                	addi	s4,s4,1
     1a8:	bf65                	j	160 <dump_bytes+0xaa>
				printf("%c", data[i]);
     1aa:	288d0513          	addi	a0,s10,648 # 1288 <_frodata+0x30>
     1ae:	2e49                	jal	540 <printf>
     1b0:	bff9                	j	18e <dump_bytes+0xd8>
			printf(" ");
     1b2:	280b8513          	addi	a0,s7,640
     1b6:	2669                	jal	540 <printf>
		for (; i < NUMBER_OF_BYTES_ON_A_LINE; i++)
     1b8:	0a05                	addi	s4,s4,1
     1ba:	bff1                	j	196 <dump_bytes+0xe0>

000001bc <my_busy_wait>:
void my_busy_wait(unsigned int ms)
{

	timer0_en_write(0);
	timer0_reload_write(0);
	timer0_load_write(CONFIG_CLOCK_FREQUENCY/1000*ms);
     1bc:	6721                	lui	a4,0x8
     1be:	23570713          	addi	a4,a4,565 # 8235 <_fdata_rom+0x6e59>
     1c2:	02e50533          	mul	a0,a0,a4
 * aligned locations: */
#define MMPTR(a) (*((volatile uint32_t *)(a)))

static inline void csr_write_simple(unsigned long v, unsigned long a)
{
	MMPTR(a) = v;
     1c6:	820057b7          	lui	a5,0x82005
     1ca:	0007a423          	sw	zero,8(a5) # 82005008 <_fstack+0x81003008>
     1ce:	0007a223          	sw	zero,4(a5)
     1d2:	4685                	li	a3,1
     1d4:	873e                	mv	a4,a5
}

static inline unsigned long csr_read_simple(unsigned long a)
{
	return MMPTR(a);
     1d6:	0741                	addi	a4,a4,16
	MMPTR(a) = v;
     1d8:	c388                	sw	a0,0(a5)
     1da:	c794                	sw	a3,8(a5)
     1dc:	c7d4                	sw	a3,12(a5)
     1de:	07b1                	addi	a5,a5,12
	return MMPTR(a);
     1e0:	4310                	lw	a2,0(a4)
	timer0_en_write(1);
	timer0_update_value_write(1);
	while(timer0_value_read()) timer0_update_value_write(1);
     1e2:	e211                	bnez	a2,1e6 <my_busy_wait+0x2a>
}
     1e4:	8082                	ret
	MMPTR(a) = v;
     1e6:	c394                	sw	a3,0(a5)
static inline uint32_t timer0_update_value_read(void) {
	return csr_read_simple((CSR_BASE + 0x500cL));
}
static inline void timer0_update_value_write(uint32_t v) {
	csr_write_simple(v, (CSR_BASE + 0x500cL));
}
     1e8:	bfe5                	j	1e0 <my_busy_wait+0x24>

000001ea <init_adc>:
     1ea:	820027b7          	lui	a5,0x82002
     1ee:	4705                	li	a4,1
     1f0:	80e7a823          	sw	a4,-2032(a5) # 82001810 <_fstack+0x80fff810>
     1f4:	21800713          	li	a4,536
     1f8:	80e7a623          	sw	a4,-2036(a5)
	return MMPTR(a);
     1fc:	82078713          	addi	a4,a5,-2016
     200:	431c                	lw	a5,0(a4)
  write_ad7606c_reg(0x02, 0x18);     // Enable 8 bit serial 
*/
void init_adc(void){
	adc0_rstrb_write(1);
	adc0_spi_tx_data_write(0x0218);
	while( !(adc0_done_tx_read() & 1) );
     202:	8b85                	andi	a5,a5,1
     204:	dff5                	beqz	a5,200 <init_adc+0x16>
	MMPTR(a) = v;
     206:	820027b7          	lui	a5,0x82002
     20a:	81078793          	addi	a5,a5,-2032 # 82001810 <_fstack+0x80fff810>
     20e:	0007a023          	sw	zero,0(a5)
     212:	4705                	li	a4,1
     214:	c398                	sw	a4,0(a5)
     216:	820027b7          	lui	a5,0x82002
     21a:	21800713          	li	a4,536
     21e:	80e7a623          	sw	a4,-2036(a5) # 8200180c <_fstack+0x80fff80c>
	return MMPTR(a);
     222:	82078713          	addi	a4,a5,-2016
     226:	431c                	lw	a5,0(a4)
	adc0_rstrb_write(0);
	adc0_rstrb_write(1);
	adc0_spi_tx_data_write(0x0218);
	while( !(adc0_done_tx_read() & 1) );
     228:	8b85                	andi	a5,a5,1
     22a:	dff5                	beqz	a5,226 <init_adc+0x3c>
	MMPTR(a) = v;
     22c:	820027b7          	lui	a5,0x82002
     230:	8007a823          	sw	zero,-2032(a5) # 82001810 <_fstack+0x80fff810>
     234:	873e                	mv	a4,a5
     236:	6785                	lui	a5,0x1
     238:	92078793          	addi	a5,a5,-1760 # 920 <__i_vfprintf+0x324>
     23c:	80f72423          	sw	a5,-2040(a4)
 	adc0_rstrb_write(0);
	adc0_sample_counter_write(2336);
}
     240:	8082                	ret

00000242 <set_power_supply>:

//"i2c_write <slaveaddr7bit> <addr> <addr_size> [<data>, ...]
//bool i2c_write(unsigned char slave_addr, unsigned int addr, const unsigned char *data, unsigned int len, unsigned int addr_size);

void set_power_supply(void){
     242:	1141                	addi	sp,sp,-16
     244:	c226                	sw	s1,4(sp)
	buf_w = 0x07;
	i2c_write( slave_addr, 0x04, &buf_w, 1, 1 );
     246:	4705                	li	a4,1
	buf_w = 0x07;
     248:	010004b7          	lui	s1,0x1000
void set_power_supply(void){
     24c:	c04a                	sw	s2,0(sp)
	i2c_write( slave_addr, 0x04, &buf_w, 1, 1 );
     24e:	86ba                	mv	a3,a4
	buf_w = 0x07;
     250:	491d                	li	s2,7
	i2c_write( slave_addr, 0x04, &buf_w, 1, 1 );
     252:	02848613          	addi	a2,s1,40 # 1000028 <buf_w>
     256:	4591                	li	a1,4
     258:	06000513          	li	a0,96
void set_power_supply(void){
     25c:	c606                	sw	ra,12(sp)
     25e:	c422                	sw	s0,8(sp)
	buf_w = 0x07;
     260:	03248423          	sb	s2,40(s1)
	i2c_write( slave_addr, 0x04, &buf_w, 1, 1 );
     264:	743000ef          	jal	11a6 <i2c_write>
	i2c_read( slave_addr, 0x04, buf, 1, 1, 1);
     268:	01000437          	lui	s0,0x1000
     26c:	4785                	li	a5,1
     26e:	873e                	mv	a4,a5
     270:	86be                	mv	a3,a5
     272:	03040613          	addi	a2,s0,48 # 1000030 <buf>
     276:	4591                	li	a1,4
     278:	06000513          	li	a0,96
     27c:	68f000ef          	jal	110a <i2c_read>
	dump_bytes((unsigned int *) buf, 1, 1);
     280:	4605                	li	a2,1
     282:	85b2                	mv	a1,a2
     284:	03040513          	addi	a0,s0,48
     288:	353d                	jal	b6 <dump_bytes>
	buf_w = 0x2B;
	i2c_write( slave_addr, 0x05, &buf_w, 1, 1 );
     28a:	4705                	li	a4,1
	buf_w = 0x2B;
     28c:	02b00793          	li	a5,43
	i2c_write( slave_addr, 0x05, &buf_w, 1, 1 );
     290:	86ba                	mv	a3,a4
     292:	02848613          	addi	a2,s1,40
     296:	4595                	li	a1,5
     298:	06000513          	li	a0,96
	buf_w = 0x2B;
     29c:	02f48423          	sb	a5,40(s1)
	i2c_write( slave_addr, 0x05, &buf_w, 1, 1 );
     2a0:	707000ef          	jal	11a6 <i2c_write>
	i2c_read( slave_addr, 0x05, buf, 1, 1, 1);
     2a4:	4785                	li	a5,1
     2a6:	873e                	mv	a4,a5
     2a8:	86be                	mv	a3,a5
     2aa:	03040613          	addi	a2,s0,48
     2ae:	4595                	li	a1,5
     2b0:	06000513          	li	a0,96
     2b4:	657000ef          	jal	110a <i2c_read>
	dump_bytes((unsigned int *) buf, 1, 1);
     2b8:	4605                	li	a2,1
     2ba:	85b2                	mv	a1,a2
     2bc:	03040513          	addi	a0,s0,48
     2c0:	3bdd                	jal	b6 <dump_bytes>
	buf_w = 0xFC;
	i2c_write( slave_addr, 0x07, &buf_w, 1, 1 );
     2c2:	4705                	li	a4,1
	buf_w = 0xFC;
     2c4:	57f1                	li	a5,-4
	i2c_write( slave_addr, 0x07, &buf_w, 1, 1 );
     2c6:	86ba                	mv	a3,a4
     2c8:	02848613          	addi	a2,s1,40
     2cc:	85ca                	mv	a1,s2
     2ce:	06000513          	li	a0,96
	buf_w = 0xFC;
     2d2:	02f48423          	sb	a5,40(s1)
	i2c_write( slave_addr, 0x07, &buf_w, 1, 1 );
     2d6:	6d1000ef          	jal	11a6 <i2c_write>
	i2c_read( slave_addr, 0x07, buf, 1, 1, 1);
     2da:	4785                	li	a5,1
     2dc:	873e                	mv	a4,a5
     2de:	86be                	mv	a3,a5
     2e0:	03040613          	addi	a2,s0,48
     2e4:	85ca                	mv	a1,s2
     2e6:	06000513          	li	a0,96
     2ea:	621000ef          	jal	110a <i2c_read>
	dump_bytes((unsigned int *) buf, 1, 1);
     2ee:	4605                	li	a2,1
     2f0:	85b2                	mv	a1,a2
     2f2:	03040513          	addi	a0,s0,48
     2f6:	33c1                	jal	b6 <dump_bytes>
	buf_w = 0x20;
	i2c_write( slave_addr, 0x0D, &buf_w, 1, 1 );
     2f8:	4705                	li	a4,1
	buf_w = 0x20;
     2fa:	02000793          	li	a5,32
	i2c_write( slave_addr, 0x0D, &buf_w, 1, 1 );
     2fe:	86ba                	mv	a3,a4
     300:	02848613          	addi	a2,s1,40
     304:	45b5                	li	a1,13
     306:	06000513          	li	a0,96
	buf_w = 0x20;
     30a:	02f48423          	sb	a5,40(s1)
	i2c_write( slave_addr, 0x0D, &buf_w, 1, 1 );
     30e:	699000ef          	jal	11a6 <i2c_write>
	i2c_read( slave_addr, 0x0D, buf, 1, 1, 1);
     312:	4785                	li	a5,1
     314:	873e                	mv	a4,a5
     316:	86be                	mv	a3,a5
     318:	03040613          	addi	a2,s0,48
     31c:	45b5                	li	a1,13
     31e:	06000513          	li	a0,96
     322:	5e9000ef          	jal	110a <i2c_read>
	dump_bytes((unsigned int *) buf, 1, 1);
     326:	4605                	li	a2,1
     328:	85b2                	mv	a1,a2
     32a:	03040513          	addi	a0,s0,48
     32e:	3361                	jal	b6 <dump_bytes>
	buf_w = 0x01;
     330:	4905                	li	s2,1
	i2c_write( slave_addr, 0x14, &buf_w, 1, 1 );
     332:	874a                	mv	a4,s2
     334:	86ca                	mv	a3,s2
     336:	02848613          	addi	a2,s1,40
     33a:	45d1                	li	a1,20
     33c:	06000513          	li	a0,96
	buf_w = 0x01;
     340:	03248423          	sb	s2,40(s1)
	i2c_write( slave_addr, 0x14, &buf_w, 1, 1 );
     344:	663000ef          	jal	11a6 <i2c_write>
	i2c_read( slave_addr, 0x14, buf, 1, 1, 1);
     348:	03040613          	addi	a2,s0,48
     34c:	87ca                	mv	a5,s2
     34e:	874a                	mv	a4,s2
     350:	86ca                	mv	a3,s2
     352:	45d1                	li	a1,20
     354:	06000513          	li	a0,96
     358:	5b3000ef          	jal	110a <i2c_read>
	dump_bytes((unsigned int *) buf, 1, 1);
     35c:	03040513          	addi	a0,s0,48

}
     360:	4422                	lw	s0,8(sp)
     362:	40b2                	lw	ra,12(sp)
     364:	4492                	lw	s1,4(sp)
	dump_bytes((unsigned int *) buf, 1, 1);
     366:	864a                	mv	a2,s2
     368:	85ca                	mv	a1,s2
}
     36a:	4902                	lw	s2,0(sp)
     36c:	0141                	addi	sp,sp,16
	dump_bytes((unsigned int *) buf, 1, 1);
     36e:	b3a1                	j	b6 <dump_bytes>

00000370 <write_memory_32>:

//short voltages [3700];

void write_memory_32(uint32_t address, uint32_t value) {
    *(volatile uint32_t *)address = value;
     370:	c10c                	sw	a1,0(a0)
}
     372:	8082                	ret

00000374 <read_memory_32>:
uint32_t read_memory_32(uint32_t address) {
    return *(volatile uint32_t *)address;
     374:	4108                	lw	a0,0(a0)
}
     376:	8082                	ret

00000378 <read_samples>:
     378:	820027b7          	lui	a5,0x82002
     37c:	81478793          	addi	a5,a5,-2028 # 82001814 <_fstack+0x80fff814>
     380:	4605                	li	a2,1
     382:	c390                	sw	a2,0(a5)
	return MMPTR(a);
     384:	82002737          	lui	a4,0x82002
	MMPTR(a) = v;
     388:	820026b7          	lui	a3,0x82002
     38c:	0007a023          	sw	zero,0(a5)
	return MMPTR(a);
     390:	82470713          	addi	a4,a4,-2012 # 82001824 <_fstack+0x80fff824>
	MMPTR(a) = v;
     394:	80068693          	addi	a3,a3,-2048 # 82001800 <_fstack+0x80fff800>
	return MMPTR(a);
     398:	431c                	lw	a5,0(a4)
	int i,j, address;
	uint32_t data;

	adc0_st_capture_write(1);
	adc0_st_capture_write(0);
    while( !(adc0_done_capture_read() & 1 )  )
     39a:	8b85                	andi	a5,a5,1
     39c:	cb95                	beqz	a5,3d0 <read_samples+0x58>
	MMPTR(a) = v;
     39e:	82002637          	lui	a2,0x82002
	return MMPTR(a);
     3a2:	820025b7          	lui	a1,0x82002
     3a6:	405006b7          	lui	a3,0x40500


	adc0_re_b_write(1);
    address = 0;
     3aa:	4701                	li	a4,0
	MMPTR(a) = v;
     3ac:	80460613          	addi	a2,a2,-2044 # 82001804 <_fstack+0x80fff804>
	for(j=0; j < 2048; j++){
		for(i = 0; i < 8; i ++){
		  adc0_adr_b_write(address);
		  if(i==2){
     3b0:	4509                	li	a0,2
		for(i = 0; i < 8; i ++){
     3b2:	48a1                	li	a7,8
	return MMPTR(a);
     3b4:	81858593          	addi	a1,a1,-2024 # 82001818 <_fstack+0x80fff818>
	for(j=0; j < 2048; j++){
     3b8:	6811                	lui	a6,0x4
		for(i = 0; i < 8; i ++){
     3ba:	4781                	li	a5,0
		  adc0_adr_b_write(address);
     3bc:	00e78333          	add	t1,a5,a4
	MMPTR(a) = v;
     3c0:	00662023          	sw	t1,0(a2)
		  if(i==2){
     3c4:	00a79863          	bne	a5,a0,3d4 <read_samples+0x5c>
	return MMPTR(a);
     3c8:	419c                	lw	a5,0(a1)
    *(volatile uint32_t *)address = value;
     3ca:	c29c                	sw	a5,0(a3)
		for(i = 0; i < 8; i ++){
     3cc:	478d                	li	a5,3
     3ce:	b7fd                	j	3bc <read_samples+0x44>
	MMPTR(a) = v;
     3d0:	c290                	sw	a2,0(a3)
}
     3d2:	b7d9                	j	398 <read_samples+0x20>
     3d4:	0785                	addi	a5,a5,1
     3d6:	ff1793e3          	bne	a5,a7,3bc <read_samples+0x44>
     3da:	0721                	addi	a4,a4,8
	for(j=0; j < 2048; j++){
     3dc:	0689                	addi	a3,a3,2 # 40500002 <_fstack+0x3f4fe002>
     3de:	fd071ee3          	bne	a4,a6,3ba <read_samples+0x42>
     3e2:	820027b7          	lui	a5,0x82002
     3e6:	8007a023          	sw	zero,-2048(a5) # 82001800 <_fstack+0x80fff800>
     3ea:	4705                	li	a4,1
     3ec:	80e7aa23          	sw	a4,-2028(a5)
//	for(i = 0; i < 2048; i ++){
//		printf("%d\n",   (int16_t )(( read_memory_32(0x40500000 + i*2)) & 0xffff)   );
//	}


}
     3f0:	8082                	ret

000003f2 <send_data_to_UDP>:

void send_data_to_UDP(void){
     3f2:	7179                	addi	sp,sp,-48
     3f4:	d606                	sw	ra,44(sp)
     3f6:	c85a                	sw	s6,16(sp)
     3f8:	c65e                	sw	s7,12(sp)
     3fa:	d422                	sw	s0,40(sp)
     3fc:	d226                	sw	s1,36(sp)
     3fe:	d04a                	sw	s2,32(sp)
     400:	ce4e                	sw	s3,28(sp)
     402:	cc52                	sw	s4,24(sp)
     404:	ca56                	sw	s5,20(sp)
     406:	82000bb7          	lui	s7,0x82000
     40a:	000ba623          	sw	zero,12(s7) # 8200000c <_fstack+0x80ffe00c>
     40e:	000ba023          	sw	zero,0(s7)
     412:	405007b7          	lui	a5,0x40500
     416:	00fba223          	sw	a5,4(s7)
     41a:	6785                	lui	a5,0x1
     41c:	80078793          	addi	a5,a5,-2048 # 800 <__i_vfprintf+0x204>
     420:	00fba423          	sw	a5,8(s7)
     424:	4b05                	li	s6,1
     426:	0a2a07b7          	lui	a5,0xa2a0
     42a:	06478793          	addi	a5,a5,100 # a2a0064 <_fstack+0x929e064>
     42e:	016ba623          	sw	s6,12(s7)
     432:	02fba023          	sw	a5,32(s7)
     436:	000bae23          	sw	zero,28(s7)
     43a:	000baa23          	sw	zero,20(s7)
     43e:	016bae23          	sw	s6,28(s7)
    // Configure UDP destination IP and port   
	dma_upload_udp_streamer_ip_address_write(0x0a2a0064);
	dma_upload_udp_streamer_enable_write(0);
	dma_upload_dma_reader_loop_write(0);
	dma_upload_udp_streamer_enable_write(1);
    my_busy_wait(100);
     442:	06400513          	li	a0,100
     446:	3b9d                	jal	1bc <my_busy_wait>
     448:	016baa23          	sw	s6,20(s7)
	return MMPTR(a);
     44c:	000ba683          	lw	a3,0(s7)
     450:	004ba603          	lw	a2,4(s7)
	dma_upload_dma_reader_loop_write(1);



	printf("DMA base: %lx\n",      dma_upload_dma_reader_base_read() );
     454:	6505                	lui	a0,0x1
     456:	29050513          	addi	a0,a0,656 # 1290 <_frodata+0x38>
     45a:	20dd                	jal	540 <printf>
     45c:	008ba583          	lw	a1,8(s7)
	printf("DMA length: %lx\n",    dma_upload_dma_reader_length_read() );
     460:	6505                	lui	a0,0x1
     462:	2a050513          	addi	a0,a0,672 # 12a0 <_frodata+0x48>
     466:	28e9                	jal	540 <printf>
     468:	00cba583          	lw	a1,12(s7)
	printf("DMA enable: %lx\n",    dma_upload_dma_reader_enable_read() );
     46c:	6505                	lui	a0,0x1
     46e:	2b450513          	addi	a0,a0,692 # 12b4 <_frodata+0x5c>
     472:	20f9                	jal	540 <printf>
     474:	010ba583          	lw	a1,16(s7)
	printf("DMA done: %lx\n",      dma_upload_dma_reader_done_read() );
     478:	6505                	lui	a0,0x1
     47a:	2c850513          	addi	a0,a0,712 # 12c8 <_frodata+0x70>
     47e:	20c9                	jal	540 <printf>
     480:	020ba583          	lw	a1,32(s7)
	printf("UDP dest_ip: %lx\n",   dma_upload_udp_streamer_ip_address_read() );
     484:	6505                	lui	a0,0x1
     486:	2d850513          	addi	a0,a0,728 # 12d8 <_frodata+0x80>
     48a:	285d                	jal	540 <printf>
     48c:	024ba583          	lw	a1,36(s7)
	printf("UDP dest_port: %lx\n", dma_upload_udp_streamer_udp_port_read() );
     490:	6505                	lui	a0,0x1
     492:	2ec50513          	addi	a0,a0,748 # 12ec <_frodata+0x94>
     496:	206d                	jal	540 <printf>


*/


}
     498:	5422                	lw	s0,40(sp)
     49a:	01cba583          	lw	a1,28(s7)
     49e:	50b2                	lw	ra,44(sp)
     4a0:	5492                	lw	s1,36(sp)
     4a2:	5902                	lw	s2,32(sp)
     4a4:	49f2                	lw	s3,28(sp)
     4a6:	4a62                	lw	s4,24(sp)
     4a8:	4ad2                	lw	s5,20(sp)
     4aa:	4b42                	lw	s6,16(sp)
     4ac:	4bb2                	lw	s7,12(sp)
	printf("UDP enable: %lx\n",    dma_upload_udp_streamer_enable_read() );
     4ae:	6505                	lui	a0,0x1
     4b0:	30050513          	addi	a0,a0,768 # 1300 <_frodata+0xa8>
}
     4b4:	6145                	addi	sp,sp,48
	printf("UDP enable: %lx\n",    dma_upload_udp_streamer_enable_read() );
     4b6:	a069                	j	540 <printf>

000004b8 <main>:


int main(void)
{
     4b8:	1141                	addi	sp,sp,-16
     4ba:	c606                	sw	ra,12(sp)
	uart_init();
     4bc:	20b000ef          	jal	ec6 <uart_init>
	printf("Running capture demo. \n");
     4c0:	6505                	lui	a0,0x1
     4c2:	31450513          	addi	a0,a0,788 # 1314 <_frodata+0xbc>
     4c6:	28ad                	jal	540 <printf>
	MMPTR(a) = v;
     4c8:	820017b7          	lui	a5,0x82001
     4cc:	4705                	li	a4,1
     4ce:	80e7a023          	sw	a4,-2048(a5) # 82000800 <_fstack+0x80ffe800>
     4d2:	6729                	lui	a4,0xa
     4d4:	80e7a423          	sw	a4,-2040(a5)
	pwm_enable_write(1);
	pwm_period_write(1024*40);
	set_power_supply();
     4d8:	33ad                	jal	242 <set_power_supply>
	init_adc();
     4da:	3b01                	jal	1ea <init_adc>
	init_adc();
     4dc:	3339                	jal	1ea <init_adc>

	send_data_to_UDP();
     4de:	3f11                	jal	3f2 <send_data_to_UDP>

	while(1){
       	read_samples();
     4e0:	3d61                	jal	378 <read_samples>
		my_busy_wait(2000);
     4e2:	7d000513          	li	a0,2000
     4e6:	39d9                	jal	1bc <my_busy_wait>
	while(1){
     4e8:	bfe5                	j	4e0 <main+0x28>

000004ea <strnlen>:
strnlen (const char *str,
	size_t n)
{
  const char *start = str;

  while (n-- > 0 && *str)
     4ea:	95aa                	add	a1,a1,a0
     4ec:	87aa                	mv	a5,a0
     4ee:	00b78563          	beq	a5,a1,4f8 <strnlen+0xe>
     4f2:	0007c703          	lbu	a4,0(a5)
     4f6:	e701                	bnez	a4,4fe <strnlen+0x14>
    str++;

  return str - start;
     4f8:	40a78533          	sub	a0,a5,a0
}
     4fc:	8082                	ret
    str++;
     4fe:	0785                	addi	a5,a5,1
     500:	b7fd                	j	4ee <strnlen+0x4>

00000502 <fputs>:
#include <stdio.h>
#include "stdio_private.h"

int
fputs(const char *str, FILE *stream)
{
     502:	1141                	addi	sp,sp,-16
     504:	c04a                	sw	s2,0(sp)
     506:	c606                	sw	ra,12(sp)
     508:	c422                	sw	s0,8(sp)
     50a:	c226                	sw	s1,4(sp)
	char c;
	int rv = 0;

	if ((stream->flags & __SWR) == 0)
     50c:	0025c783          	lbu	a5,2(a1)
		return EOF;
     510:	597d                	li	s2,-1
	if ((stream->flags & __SWR) == 0)
     512:	8b89                	andi	a5,a5,2
     514:	cb81                	beqz	a5,524 <fputs+0x22>
     516:	842a                	mv	s0,a0
     518:	84ae                	mv	s1,a1
	int rv = 0;
     51a:	4901                	li	s2,0

	while ((c = *str++) != '\0')
     51c:	00044503          	lbu	a0,0(s0)
     520:	0405                	addi	s0,s0,1
     522:	e901                	bnez	a0,532 <fputs+0x30>
		if (stream->put(c, stream) < 0)
			rv = EOF;

	return rv;
}
     524:	40b2                	lw	ra,12(sp)
     526:	4422                	lw	s0,8(sp)
     528:	4492                	lw	s1,4(sp)
     52a:	854a                	mv	a0,s2
     52c:	4902                	lw	s2,0(sp)
     52e:	0141                	addi	sp,sp,16
     530:	8082                	ret
		if (stream->put(c, stream) < 0)
     532:	40dc                	lw	a5,4(s1)
     534:	85a6                	mv	a1,s1
     536:	9782                	jalr	a5
     538:	fe0552e3          	bgez	a0,51c <fputs+0x1a>
			rv = EOF;
     53c:	597d                	li	s2,-1
     53e:	bff9                	j	51c <fputs+0x1a>

00000540 <printf>:
#include <stdarg.h>
#include <stdio.h>

int
printf(const char *fmt, ...)
{
     540:	7139                	addi	sp,sp,-64
     542:	da3e                	sw	a5,52(sp)
	va_list ap;
	int i;

	va_start(ap, fmt);
	i = vfprintf(stdout, fmt, ap);
     544:	6785                	lui	a5,0x1
{
     546:	d22e                	sw	a1,36(sp)
	i = vfprintf(stdout, fmt, ap);
     548:	85aa                	mv	a1,a0
     54a:	3d87a503          	lw	a0,984(a5) # 13d8 <stdout>
{
     54e:	d432                	sw	a2,40(sp)
	va_start(ap, fmt);
     550:	1050                	addi	a2,sp,36
{
     552:	ce06                	sw	ra,28(sp)
     554:	d636                	sw	a3,44(sp)
     556:	d83a                	sw	a4,48(sp)
     558:	dc42                	sw	a6,56(sp)
     55a:	de46                	sw	a7,60(sp)
	va_start(ap, fmt);
     55c:	c632                	sw	a2,12(sp)
	i = vfprintf(stdout, fmt, ap);
     55e:	2879                	jal	5fc <__i_vfprintf>
	va_end(ap);

	return i;
}
     560:	40f2                	lw	ra,28(sp)
     562:	6121                	addi	sp,sp,64
     564:	8082                	ret

00000566 <__ultoa_invert>:

#include "xtoa_fast.h"

static __noinline char *
__ultoa_invert(ultoa_unsigned_t val, char *str, int base)
{
     566:	7179                	addi	sp,sp,-48
     568:	d226                	sw	s1,36(sp)
     56a:	ce4e                	sw	s3,28(sp)
     56c:	cc52                	sw	s4,24(sp)
     56e:	d606                	sw	ra,44(sp)
     570:	d422                	sw	s0,40(sp)
     572:	d04a                	sw	s2,32(sp)
     574:	ca56                	sw	s5,20(sp)
     576:	c85a                	sw	s6,16(sp)
     578:	c65e                	sw	s7,12(sp)
     57a:	c462                	sw	s8,8(sp)
     57c:	c266                	sw	s9,4(sp)
	char hex = 'a' - '0' - 10;

	if (base & XTOA_UPPER) {
     57e:	2006f793          	andi	a5,a3,512
{
     582:	89aa                	mv	s3,a0
     584:	8a2e                	mv	s4,a1
     586:	84b2                	mv	s1,a2
	if (base & XTOA_UPPER) {
     588:	e7bd                	bnez	a5,5f6 <__ultoa_invert+0x90>
     58a:	8936                	mv	s2,a3
	char hex = 'a' - '0' - 10;
     58c:	02700b13          	li	s6,39
		base &= ~XTOA_UPPER;
	}
	do {
		char	v;

                v = val % base;
     590:	41f95a93          	srai	s5,s2,0x1f
                val /= base;

		if (v > 9)
     594:	4ca5                	li	s9,9
                v = val % base;
     596:	864a                	mv	a2,s2
     598:	86d6                	mv	a3,s5
     59a:	854e                	mv	a0,s3
     59c:	85d2                	mv	a1,s4
     59e:	06f000ef          	jal	e0c <__umoddi3>
                val /= base;
     5a2:	85d2                	mv	a1,s4
                v = val % base;
     5a4:	0ff57413          	zext.b	s0,a0
                val /= base;
     5a8:	864a                	mv	a2,s2
     5aa:	854e                	mv	a0,s3
     5ac:	86d6                	mv	a3,s5
     5ae:	05b000ef          	jal	e08 <__udivdi3>
     5b2:	8c4e                	mv	s8,s3
     5b4:	8bd2                	mv	s7,s4
     5b6:	89aa                	mv	s3,a0
     5b8:	8a2e                	mv	s4,a1
		if (v > 9)
     5ba:	008cf563          	bgeu	s9,s0,5c4 <__ultoa_invert+0x5e>
                        v += hex;
     5be:	945a                	add	s0,s0,s6
     5c0:	0ff47413          	zext.b	s0,s0
                v += '0';
		*str++ = v;
     5c4:	0485                	addi	s1,s1,1
                v += '0';
     5c6:	03040413          	addi	s0,s0,48
		*str++ = v;
     5ca:	fe848fa3          	sb	s0,-1(s1)
	} while (val);
     5ce:	015be663          	bltu	s7,s5,5da <__ultoa_invert+0x74>
     5d2:	fd7a92e3          	bne	s5,s7,596 <__ultoa_invert+0x30>
     5d6:	fd2c70e3          	bgeu	s8,s2,596 <__ultoa_invert+0x30>
	return str;
}
     5da:	50b2                	lw	ra,44(sp)
     5dc:	5422                	lw	s0,40(sp)
     5de:	5902                	lw	s2,32(sp)
     5e0:	49f2                	lw	s3,28(sp)
     5e2:	4a62                	lw	s4,24(sp)
     5e4:	4ad2                	lw	s5,20(sp)
     5e6:	4b42                	lw	s6,16(sp)
     5e8:	4bb2                	lw	s7,12(sp)
     5ea:	4c22                	lw	s8,8(sp)
     5ec:	4c92                	lw	s9,4(sp)
     5ee:	8526                	mv	a0,s1
     5f0:	5492                	lw	s1,36(sp)
     5f2:	6145                	addi	sp,sp,48
     5f4:	8082                	ret
		hex = 'A' - '0' - 10;
     5f6:	4b1d                	li	s6,7
		base &= ~XTOA_UPPER;
     5f8:	4941                	li	s2,16
     5fa:	bf59                	j	590 <__ultoa_invert+0x2a>

000005fc <__i_vfprintf>:
    }
}
#endif

int vfprintf (FILE * stream, const char *fmt, va_list ap_orig)
{
     5fc:	7159                	addi	sp,sp,-112
     5fe:	cad6                	sw	s5,84(sp)
     600:	d686                	sw	ra,108(sp)
     602:	d4a2                	sw	s0,104(sp)
     604:	d2a6                	sw	s1,100(sp)
     606:	d0ca                	sw	s2,96(sp)
     608:	cece                	sw	s3,92(sp)
     60a:	ccd2                	sw	s4,88(sp)
     60c:	c8da                	sw	s6,80(sp)
     60e:	c6de                	sw	s7,76(sp)
     610:	c4e2                	sw	s8,72(sp)
     612:	c2e6                	sw	s9,68(sp)
     614:	c0ea                	sw	s10,64(sp)
     616:	de6e                	sw	s11,60(sp)

    int stream_len = 0;

#define my_putc(c, stream) do { ++stream_len; if (put(c, stream) < 0) goto fail; } while(0)

    if ((stream->flags & __SWR) == 0)
     618:	00254783          	lbu	a5,2(a0)
{
     61c:	c42a                	sw	a0,8(sp)
    int (*put)(char, FILE *) = stream->put;
     61e:	00452a83          	lw	s5,4(a0)
    if ((stream->flags & __SWR) == 0)
     622:	8b89                	andi	a5,a5,2
     624:	22078363          	beqz	a5,84a <__i_vfprintf+0x24e>
     628:	84b2                	mv	s1,a2
    int stream_len = 0;
     62a:	4901                	li	s2,0
    for (;;) {

	for (;;) {
	    c = *fmt++;
	    if (!c) goto ret;
	    if (c == '%') {
     62c:	02500c13          	li	s8,37
	    c = *fmt++;
     630:	0005c503          	lbu	a0,0(a1)
	    if (!c) goto ret;
     634:	20050c63          	beqz	a0,84c <__i_vfprintf+0x250>
	    c = *fmt++;
     638:	00158b93          	addi	s7,a1,1
	    if (c == '%') {
     63c:	01851863          	bne	a0,s8,64c <__i_vfprintf+0x50>
		c = *fmt++;
     640:	0015cc83          	lbu	s9,1(a1)
     644:	00258b93          	addi	s7,a1,2
		if (c != '%') break;
     648:	018c9963          	bne	s9,s8,65a <__i_vfprintf+0x5e>
	    }
	    my_putc (c, stream);
     64c:	45a2                	lw	a1,8(sp)
     64e:	0905                	addi	s2,s2,1
                        base = 16;
                        if (c == 'X')
                            base = 16 | XTOA_UPPER;
                    } else {
                        my_putc('%', stream);
                        my_putc(c, stream);
     650:	9a82                	jalr	s5
     652:	1e054c63          	bltz	a0,84a <__i_vfprintf+0x24e>
{
     656:	85de                	mv	a1,s7
     658:	bfe1                	j	630 <__i_vfprintf+0x34>
	prec = 0;
     65a:	4d01                	li	s10,0
	width = 0;
     65c:	4981                	li	s3,0
	flags = 0;
     65e:	4401                	li	s0,0
	    if (flags < FL_WIDTH) {
     660:	467d                	li	a2,31
     662:	06c00713          	li	a4,108
     666:	07400593          	li	a1,116
     66a:	06800513          	li	a0,104
     66e:	06a00813          	li	a6,106
		if (c >= '0' && c <= '9') {
     672:	48a5                	li	a7,9
		if (c == '*') {
     674:	02a00313          	li	t1,42
		if (c == '.') {
     678:	02e00e13          	li	t3,46
     67c:	46a9                	li	a3,10
	    if (flags < FL_LONG) {
     67e:	07f00e93          	li	t4,127
		switch (c) {
     682:	4f41                	li	t5,16
     684:	6f85                	lui	t6,0x1
	    if (flags < FL_WIDTH) {
     686:	04866163          	bltu	a2,s0,6c8 <__i_vfprintf+0xcc>
		switch (c) {
     68a:	fe0c8793          	addi	a5,s9,-32
     68e:	0ff7f793          	zext.b	a5,a5
     692:	02ff6d63          	bltu	t5,a5,6cc <__i_vfprintf+0xd0>
     696:	078a                	slli	a5,a5,0x2
     698:	340f8293          	addi	t0,t6,832 # 1340 <_frodata+0xe8>
     69c:	9796                	add	a5,a5,t0
     69e:	439c                	lw	a5,0(a5)
     6a0:	8782                	jr	a5
		    flags |= FL_ZFILL;
     6a2:	00146413          	ori	s0,s0,1
	} while ( (c = *fmt++) != 0);
     6a6:	000bcc83          	lbu	s9,0(s7)
     6aa:	0b85                	addi	s7,s7,1
     6ac:	fc0c9de3          	bnez	s9,686 <__i_vfprintf+0x8a>
     6b0:	a851                	j	744 <__i_vfprintf+0x148>
		    flags |= FL_PLUS;
     6b2:	00246413          	ori	s0,s0,2
		    flags |= FL_SPACE;
     6b6:	00446413          	ori	s0,s0,4
		    continue;
     6ba:	b7f5                	j	6a6 <__i_vfprintf+0xaa>
		    flags |= FL_LPAD;
     6bc:	00846413          	ori	s0,s0,8
		    continue;
     6c0:	b7dd                	j	6a6 <__i_vfprintf+0xaa>
		    flags |= FL_ALT;
     6c2:	01046413          	ori	s0,s0,16
		    continue;
     6c6:	b7c5                	j	6a6 <__i_vfprintf+0xaa>
	    if (flags < FL_LONG) {
     6c8:	068ee263          	bltu	t4,s0,72c <__i_vfprintf+0x130>
		if (c >= '0' && c <= '9') {
     6cc:	fd0c8793          	addi	a5,s9,-48
     6d0:	0ff7f793          	zext.b	a5,a5
     6d4:	02f8e063          	bltu	a7,a5,6f4 <__i_vfprintf+0xf8>
		    if (flags & FL_PREC) {
     6d8:	04047293          	andi	t0,s0,64
     6dc:	00028663          	beqz	t0,6e8 <__i_vfprintf+0xec>
			prec = 10*prec + c;
     6e0:	02dd0d33          	mul	s10,s10,a3
     6e4:	9d3e                	add	s10,s10,a5
			continue;
     6e6:	b7c1                	j	6a6 <__i_vfprintf+0xaa>
		    width = 10*width + c;
     6e8:	02d989b3          	mul	s3,s3,a3
		    flags |= FL_WIDTH;
     6ec:	02046413          	ori	s0,s0,32
		    width = 10*width + c;
     6f0:	99be                	add	s3,s3,a5
		    continue;
     6f2:	bf55                	j	6a6 <__i_vfprintf+0xaa>
		if (c == '*') {
     6f4:	026c9363          	bne	s9,t1,71a <__i_vfprintf+0x11e>
		    if (flags & FL_PREC) {
     6f8:	04047293          	andi	t0,s0,64
			prec = va_arg(ap, int);
     6fc:	409c                	lw	a5,0(s1)
     6fe:	0491                	addi	s1,s1,4
		    if (flags & FL_PREC) {
     700:	0c029163          	bnez	t0,7c2 <__i_vfprintf+0x1c6>
			if (width < 0) {
     704:	0007c663          	bltz	a5,710 <__i_vfprintf+0x114>
			flags |= FL_WIDTH;
     708:	02046413          	ori	s0,s0,32
			width = va_arg(ap, int);
     70c:	89be                	mv	s3,a5
     70e:	bf61                	j	6a6 <__i_vfprintf+0xaa>
			    width = -width;
     710:	40f009b3          	neg	s3,a5
			    flags |= FL_LPAD;
     714:	02846413          	ori	s0,s0,40
     718:	b779                	j	6a6 <__i_vfprintf+0xaa>
		if (c == '.') {
     71a:	01cc9963          	bne	s9,t3,72c <__i_vfprintf+0x130>
		    if (flags & FL_PREC)
     71e:	04047793          	andi	a5,s0,64
     722:	12079563          	bnez	a5,84c <__i_vfprintf+0x250>
		    flags |= FL_PREC;
     726:	04046413          	ori	s0,s0,64
		    continue;
     72a:	bfb5                	j	6a6 <__i_vfprintf+0xaa>
	    if (c == 'l') {
     72c:	06ec8863          	beq	s9,a4,79c <__i_vfprintf+0x1a0>
     730:	05976f63          	bltu	a4,s9,78e <__i_vfprintf+0x192>
     734:	06ac8c63          	beq	s9,a0,7ac <__i_vfprintf+0x1b0>
     738:	090c8263          	beq	s9,a6,7bc <__i_vfprintf+0x1c0>
     73c:	04c00793          	li	a5,76
     740:	06fc8e63          	beq	s9,a5,7bc <__i_vfprintf+0x1c0>
	if (prec < 0) {
     744:	000d5763          	bgez	s10,752 <__i_vfprintf+0x156>
	    flags &= ~FL_PREC;
     748:	fbf47413          	andi	s0,s0,-65
     74c:	0442                	slli	s0,s0,0x10
     74e:	8041                	srli	s0,s0,0x10
	    prec = 0;
     750:	4d01                	li	s10,0
	if ((TOLOW(c) >= 'e' && TOLOW(c) <= 'g')
     752:	020ce713          	ori	a4,s9,32
     756:	f9b70793          	addi	a5,a4,-101 # 9f9b <_fdata_rom+0x8bbf>
     75a:	0ff7f793          	zext.b	a5,a5
     75e:	4689                	li	a3,2
     760:	00f6f663          	bgeu	a3,a5,76c <__i_vfprintf+0x170>
            || TOLOW(c) == 'a'
     764:	06100793          	li	a5,97
     768:	04f71f63          	bne	a4,a5,7c6 <__i_vfprintf+0x1ca>
	    (void) PRINTF_FLOAT_ARG(ap);
     76c:	049d                	addi	s1,s1,7
     76e:	98e1                	andi	s1,s1,-8
	    pnt = "*float*";
     770:	6b05                	lui	s6,0x1
	    (void) PRINTF_FLOAT_ARG(ap);
     772:	04a1                	addi	s1,s1,8
	    size = sizeof ("*float*") - 1;
     774:	4c9d                	li	s9,7
	    pnt = "*float*";
     776:	334b0b13          	addi	s6,s6,820 # 1334 <_frodata+0xdc>
                if (!(flags & FL_LPAD)) {
     77a:	8821                	andi	s0,s0,8
     77c:	cc45                	beqz	s0,834 <__i_vfprintf+0x238>
                while (size--) {
     77e:	4401                	li	s0,0
     780:	0a8c9c63          	bne	s9,s0,838 <__i_vfprintf+0x23c>
     784:	01990633          	add	a2,s2,s9
                width -= size;
     788:	419989b3          	sub	s3,s3,s9
     78c:	a4ed                	j	a76 <__i_vfprintf+0x47a>
     78e:	f0bc8ce3          	beq	s9,a1,6a6 <__i_vfprintf+0xaa>
     792:	07a00793          	li	a5,122
     796:	f0fc88e3          	beq	s9,a5,6a6 <__i_vfprintf+0xaa>
     79a:	b76d                	j	744 <__i_vfprintf+0x148>
		if (flags & FL_LONG)
     79c:	08047793          	andi	a5,s0,128
     7a0:	c399                	beqz	a5,7a6 <__i_vfprintf+0x1aa>
		    flags |= FL_REPD_TYPE;
     7a2:	20046413          	ori	s0,s0,512
		flags |= FL_LONG;
     7a6:	08046413          	ori	s0,s0,128
		continue;
     7aa:	bdf5                	j	6a6 <__i_vfprintf+0xaa>
		if (flags & FL_SHORT)
     7ac:	10047793          	andi	a5,s0,256
     7b0:	c399                	beqz	a5,7b6 <__i_vfprintf+0x1ba>
		    flags |= FL_REPD_TYPE;
     7b2:	20046413          	ori	s0,s0,512
		flags |= FL_SHORT;
     7b6:	10046413          	ori	s0,s0,256
		continue;
     7ba:	b5f5                	j	6a6 <__i_vfprintf+0xaa>
	    CHECK_INT_SIZE('j', intmax_t);
     7bc:	28046413          	ori	s0,s0,640
     7c0:	b5dd                	j	6a6 <__i_vfprintf+0xaa>
			prec = va_arg(ap, int);
     7c2:	8d3e                	mv	s10,a5
     7c4:	b5cd                	j	6a6 <__i_vfprintf+0xaa>
            if (c == 'c') {
     7c6:	f9dc8793          	addi	a5,s9,-99
     7ca:	0ff7f793          	zext.b	a5,a5
     7ce:	46c9                	li	a3,18
     7d0:	1cf6e563          	bltu	a3,a5,99a <__i_vfprintf+0x39e>
     7d4:	6685                	lui	a3,0x1
     7d6:	078a                	slli	a5,a5,0x2
     7d8:	38468693          	addi	a3,a3,900 # 1384 <_frodata+0x12c>
     7dc:	97b6                	add	a5,a5,a3
     7de:	439c                	lw	a5,0(a5)
     7e0:	8782                	jr	a5
                buf[0] = va_arg (ap, int);
     7e2:	409c                	lw	a5,0(s1)
                size = 1;
     7e4:	4c85                	li	s9,1
                buf[0] = va_arg (ap, int);
     7e6:	0491                	addi	s1,s1,4
     7e8:	00f10c23          	sb	a5,24(sp)
                pnt = buf;
     7ec:	01810b13          	addi	s6,sp,24
                goto str_lpad;
     7f0:	b769                	j	77a <__i_vfprintf+0x17e>
                pnt = va_arg (ap, char *);
     7f2:	0004ab03          	lw	s6,0(s1)
     7f6:	00448d93          	addi	s11,s1,4
                if (!pnt)
     7fa:	000b1563          	bnez	s6,804 <__i_vfprintf+0x208>
                    pnt = "(null)";
     7fe:	6b05                	lui	s6,0x1
     800:	32cb0b13          	addi	s6,s6,812 # 132c <_frodata+0xd4>
                size = strnlen (pnt, (flags & FL_PREC) ? prec : ~0);
     804:	04047793          	andi	a5,s0,64
     808:	e391                	bnez	a5,80c <__i_vfprintf+0x210>
     80a:	5d7d                	li	s10,-1
     80c:	85ea                	mv	a1,s10
     80e:	855a                	mv	a0,s6
     810:	39e9                	jal	4ea <strnlen>
     812:	8caa                	mv	s9,a0
                pnt = va_arg (ap, char *);
     814:	84ee                	mv	s1,s11
     816:	b795                	j	77a <__i_vfprintf+0x17e>
                        my_putc (' ', stream);
     818:	45a2                	lw	a1,8(sp)
     81a:	02000513          	li	a0,32
     81e:	9a82                	jalr	s5
     820:	02054563          	bltz	a0,84a <__i_vfprintf+0x24e>
                        width--;
     824:	147d                	addi	s0,s0,-1
                    while ((size_t) width > size) {
     826:	fe8ce9e3          	bltu	s9,s0,818 <__i_vfprintf+0x21c>
     82a:	99ca                	add	s3,s3,s2
     82c:	40898933          	sub	s2,s3,s0
     830:	89a2                	mv	s3,s0
     832:	b7b1                	j	77e <__i_vfprintf+0x182>
     834:	844e                	mv	s0,s3
     836:	bfc5                	j	826 <__i_vfprintf+0x22a>
                    my_putc (*pnt++, stream);
     838:	008b07b3          	add	a5,s6,s0
     83c:	45a2                	lw	a1,8(sp)
     83e:	0007c503          	lbu	a0,0(a5)
     842:	0405                	addi	s0,s0,1
     844:	9a82                	jalr	s5
     846:	f2055de3          	bgez	a0,780 <__i_vfprintf+0x184>
	return EOF;
     84a:	597d                	li	s2,-1
#undef my_putc
#undef ap
  fail:
    stream_len = -1;
    goto ret;
}
     84c:	50b6                	lw	ra,108(sp)
     84e:	5426                	lw	s0,104(sp)
     850:	5496                	lw	s1,100(sp)
     852:	49f6                	lw	s3,92(sp)
     854:	4a66                	lw	s4,88(sp)
     856:	4ad6                	lw	s5,84(sp)
     858:	4b46                	lw	s6,80(sp)
     85a:	4bb6                	lw	s7,76(sp)
     85c:	4c26                	lw	s8,72(sp)
     85e:	4c96                	lw	s9,68(sp)
     860:	4d06                	lw	s10,64(sp)
     862:	5df2                	lw	s11,60(sp)
     864:	854a                	mv	a0,s2
     866:	5906                	lw	s2,96(sp)
     868:	6165                	addi	sp,sp,112
     86a:	8082                	ret
                    arg_to_signed(ap, flags, x_s);
     86c:	08047793          	andi	a5,s0,128
     870:	cbb5                	beqz	a5,8e4 <__i_vfprintf+0x2e8>
     872:	20047793          	andi	a5,s0,512
     876:	c3ad                	beqz	a5,8d8 <__i_vfprintf+0x2dc>
     878:	049d                	addi	s1,s1,7
     87a:	98e1                	andi	s1,s1,-8
     87c:	4088                	lw	a0,0(s1)
     87e:	40cc                	lw	a1,4(s1)
     880:	00848b13          	addi	s6,s1,8
                    if (x_s < 0) {
     884:	fef47793          	andi	a5,s0,-17
     888:	01079a13          	slli	s4,a5,0x10
     88c:	010a5a13          	srli	s4,s4,0x10
     890:	0605d963          	bgez	a1,902 <__i_vfprintf+0x306>
                        x_s = -x_s;
     894:	00a03733          	snez	a4,a0
     898:	40b005b3          	neg	a1,a1
     89c:	8d99                	sub	a1,a1,a4
     89e:	40a00533          	neg	a0,a0
                    flags &= ~FL_ALT;
     8a2:	400a6a13          	ori	s4,s4,1024
                        buf_len = __ultoa_invert (x_s, buf, 10) - buf;
     8a6:	01810d93          	addi	s11,sp,24
     8aa:	46a9                	li	a3,10
                        buf_len = __ultoa_invert (x, buf, base) - buf;
     8ac:	866e                	mv	a2,s11
     8ae:	3965                	jal	566 <__ultoa_invert>
                if (flags & FL_PREC) {
     8b0:	040a7713          	andi	a4,s4,64
                        buf_len = __ultoa_invert (x, buf, base) - buf;
     8b4:	41b50db3          	sub	s11,a0,s11
                if (flags & FL_PREC) {
     8b8:	14070663          	beqz	a4,a04 <__i_vfprintf+0x408>
                    flags &= ~FL_ZFILL;
     8bc:	ffea7413          	andi	s0,s4,-2
     8c0:	0442                	slli	s0,s0,0x10
     8c2:	8041                	srli	s0,s0,0x10
                    if (len < prec) {
     8c4:	15addb63          	bge	s11,s10,a1a <__i_vfprintf+0x41e>
                        if (c == '\0')
     8c8:	140c9b63          	bnez	s9,a1e <__i_vfprintf+0x422>
                            flags &= ~FL_ALT;
     8cc:	feea7413          	andi	s0,s4,-18
     8d0:	0442                	slli	s0,s0,0x10
     8d2:	8041                	srli	s0,s0,0x10
                        len = prec;
     8d4:	84ea                	mv	s1,s10
     8d6:	a099                	j	91c <__i_vfprintf+0x320>
                    arg_to_signed(ap, flags, x_s);
     8d8:	4088                	lw	a0,0(s1)
     8da:	00448b13          	addi	s6,s1,4
     8de:	41f55593          	srai	a1,a0,0x1f
     8e2:	b74d                	j	884 <__i_vfprintf+0x288>
     8e4:	10047793          	andi	a5,s0,256
     8e8:	4088                	lw	a0,0(s1)
     8ea:	00448b13          	addi	s6,s1,4
     8ee:	dbe5                	beqz	a5,8de <__i_vfprintf+0x2e2>
     8f0:	20047793          	andi	a5,s0,512
     8f4:	c781                	beqz	a5,8fc <__i_vfprintf+0x300>
     8f6:	0562                	slli	a0,a0,0x18
     8f8:	8561                	srai	a0,a0,0x18
     8fa:	b7d5                	j	8de <__i_vfprintf+0x2e2>
     8fc:	0542                	slli	a0,a0,0x10
     8fe:	8541                	srai	a0,a0,0x10
     900:	bff9                	j	8de <__i_vfprintf+0x2e2>
                    if (x_s == 0 && (flags & FL_PREC) && prec == 0)
     902:	00b56733          	or	a4,a0,a1
     906:	f345                	bnez	a4,8a6 <__i_vfprintf+0x2aa>
     908:	04047713          	andi	a4,s0,64
     90c:	df49                	beqz	a4,8a6 <__i_vfprintf+0x2aa>
     90e:	f80d1ce3          	bnez	s10,8a6 <__i_vfprintf+0x2aa>
                    flags &= ~FL_ZFILL;
     912:	9839                	andi	s0,s0,-18
     914:	0442                	slli	s0,s0,0x10
     916:	8041                	srli	s0,s0,0x10
                        buf_len = 0;
     918:	4d81                	li	s11,0
                len = buf_len;
     91a:	4481                	li	s1,0
                } else if (flags & (FL_NEGATIVE | FL_PLUS | FL_SPACE)) {
     91c:	40647793          	andi	a5,s0,1030
                    len += 1;
     920:	00f037b3          	snez	a5,a5
     924:	94be                	add	s1,s1,a5
     926:	a0a1                	j	96e <__i_vfprintf+0x372>
                        flags &= ~FL_ALT;
     928:	983d                	andi	s0,s0,-17
     92a:	0442                	slli	s0,s0,0x10
     92c:	8041                	srli	s0,s0,0x10
                        base = 10;
     92e:	46a9                	li	a3,10
                    arg_to_unsigned(ap, flags, x);
     930:	08047793          	andi	a5,s0,128
     934:	c3cd                	beqz	a5,9d6 <__i_vfprintf+0x3da>
     936:	20047793          	andi	a5,s0,512
     93a:	cbc9                	beqz	a5,9cc <__i_vfprintf+0x3d0>
     93c:	049d                	addi	s1,s1,7
     93e:	98e1                	andi	s1,s1,-8
     940:	4088                	lw	a0,0(s1)
     942:	40cc                	lw	a1,4(s1)
     944:	00848b13          	addi	s6,s1,8
                    if (x == 0)
     948:	00b567b3          	or	a5,a0,a1
     94c:	e7c5                	bnez	a5,9f4 <__i_vfprintf+0x3f8>
                        flags &= ~FL_ALT;
     94e:	fe947793          	andi	a5,s0,-23
     952:	01079a13          	slli	s4,a5,0x10
                    if (x == 0 && (flags & FL_PREC) && prec == 0)
     956:	04047713          	andi	a4,s0,64
                        flags &= ~FL_ALT;
     95a:	010a5a13          	srli	s4,s4,0x10
                    if (x == 0 && (flags & FL_PREC) && prec == 0)
     95e:	c345                	beqz	a4,9fe <__i_vfprintf+0x402>
     960:	080d1f63          	bnez	s10,9fe <__i_vfprintf+0x402>
                    flags &= ~FL_ZFILL;
     964:	9821                	andi	s0,s0,-24
     966:	0442                	slli	s0,s0,0x10
     968:	8041                	srli	s0,s0,0x10
                        buf_len = 0;
     96a:	4d81                	li	s11,0
                len = buf_len;
     96c:	4481                	li	s1,0
                if (!(flags & FL_LPAD)) {
     96e:	00847793          	andi	a5,s0,8
     972:	ebe1                	bnez	a5,a42 <__i_vfprintf+0x446>
                    if (flags & FL_ZFILL) {
     974:	00147793          	andi	a5,s0,1
     978:	cb89                	beqz	a5,98a <__i_vfprintf+0x38e>
                        prec = buf_len;
     97a:	8d6e                	mv	s10,s11
                        if (len < width) {
     97c:	0134d763          	bge	s1,s3,98a <__i_vfprintf+0x38e>
                            prec += width - len;
     980:	409984b3          	sub	s1,s3,s1
     984:	01b48d33          	add	s10,s1,s11
                            len = width;
     988:	84ce                	mv	s1,s3
                        prec = buf_len;
     98a:	87a6                	mv	a5,s1
     98c:	a065                	j	a34 <__i_vfprintf+0x438>
                        flags |= FL_ALT;
     98e:	01046413          	ori	s0,s0,16
                        base = 16;
     992:	46c1                	li	a3,16
                        c = 'x';
     994:	07800c93          	li	s9,120
     998:	bf61                	j	930 <__i_vfprintf+0x334>
                    } else if (TOLOW(c) == 'x') {
     99a:	07800793          	li	a5,120
     99e:	00f71a63          	bne	a4,a5,9b2 <__i_vfprintf+0x3b6>
                        if (c == 'X')
     9a2:	05800793          	li	a5,88
                            base = 16 | XTOA_UPPER;
     9a6:	21000693          	li	a3,528
                        if (c == 'X')
     9aa:	f8fc83e3          	beq	s9,a5,930 <__i_vfprintf+0x334>
                        base = 16;
     9ae:	46c1                	li	a3,16
     9b0:	b741                	j	930 <__i_vfprintf+0x334>
                        my_putc('%', stream);
     9b2:	45a2                	lw	a1,8(sp)
     9b4:	02500513          	li	a0,37
     9b8:	9a82                	jalr	s5
     9ba:	e80548e3          	bltz	a0,84a <__i_vfprintf+0x24e>
                        my_putc(c, stream);
     9be:	45a2                	lw	a1,8(sp)
     9c0:	0909                	addi	s2,s2,2
     9c2:	8566                	mv	a0,s9
     9c4:	b171                	j	650 <__i_vfprintf+0x54>
            || TOLOW(c) == 'a'
     9c6:	46a1                	li	a3,8
     9c8:	4c81                	li	s9,0
     9ca:	b79d                	j	930 <__i_vfprintf+0x334>
                    arg_to_unsigned(ap, flags, x);
     9cc:	4088                	lw	a0,0(s1)
     9ce:	00448b13          	addi	s6,s1,4
     9d2:	4581                	li	a1,0
     9d4:	bf95                	j	948 <__i_vfprintf+0x34c>
     9d6:	10047793          	andi	a5,s0,256
     9da:	4088                	lw	a0,0(s1)
     9dc:	00448b13          	addi	s6,s1,4
     9e0:	dbed                	beqz	a5,9d2 <__i_vfprintf+0x3d6>
     9e2:	20047793          	andi	a5,s0,512
     9e6:	c781                	beqz	a5,9ee <__i_vfprintf+0x3f2>
     9e8:	0ff57513          	zext.b	a0,a0
     9ec:	b7dd                	j	9d2 <__i_vfprintf+0x3d6>
     9ee:	0542                	slli	a0,a0,0x10
     9f0:	8141                	srli	a0,a0,0x10
     9f2:	b7c5                	j	9d2 <__i_vfprintf+0x3d6>
                    flags &= ~(FL_PLUS | FL_SPACE);
     9f4:	9865                	andi	s0,s0,-7
     9f6:	01041a13          	slli	s4,s0,0x10
     9fa:	010a5a13          	srli	s4,s4,0x10
                        buf_len = __ultoa_invert (x, buf, base) - buf;
     9fe:	01810d93          	addi	s11,sp,24
     a02:	b56d                	j	8ac <__i_vfprintf+0x2b0>
                len = buf_len;
     a04:	84ee                	mv	s1,s11
     a06:	8452                	mv	s0,s4
                if (flags & FL_ALT) {
     a08:	01047793          	andi	a5,s0,16
     a0c:	db81                	beqz	a5,91c <__i_vfprintf+0x320>
                    len += 1;
     a0e:	87a6                	mv	a5,s1
     a10:	019034b3          	snez	s1,s9
     a14:	94be                	add	s1,s1,a5
     a16:	0485                	addi	s1,s1,1
     a18:	bf99                	j	96e <__i_vfprintf+0x372>
                len = buf_len;
     a1a:	84ee                	mv	s1,s11
     a1c:	b7f5                	j	a08 <__i_vfprintf+0x40c>
                        len = prec;
     a1e:	84ea                	mv	s1,s10
     a20:	b7e5                	j	a08 <__i_vfprintf+0x40c>
                        my_putc (' ', stream);
     a22:	45a2                	lw	a1,8(sp)
     a24:	02000513          	li	a0,32
     a28:	c63e                	sw	a5,12(sp)
     a2a:	9a82                	jalr	s5
     a2c:	e0054fe3          	bltz	a0,84a <__i_vfprintf+0x24e>
                        len++;
     a30:	47b2                	lw	a5,12(sp)
     a32:	0785                	addi	a5,a5,1
                    while (len < width) {
     a34:	ff37c7e3          	blt	a5,s3,a22 <__i_vfprintf+0x426>
     a38:	409904b3          	sub	s1,s2,s1
     a3c:	00f48933          	add	s2,s1,a5
     a40:	84be                	mv	s1,a5
                if (flags & FL_ALT) {
     a42:	01047793          	andi	a5,s0,16
     a46:	c3b1                	beqz	a5,a8a <__i_vfprintf+0x48e>
                    my_putc ('0', stream);
     a48:	45a2                	lw	a1,8(sp)
     a4a:	03000513          	li	a0,48
     a4e:	9a82                	jalr	s5
     a50:	de054de3          	bltz	a0,84a <__i_vfprintf+0x24e>
                    if (c != '\0')
     a54:	020c9463          	bnez	s9,a7c <__i_vfprintf+0x480>
                    my_putc ('0', stream);
     a58:	0905                	addi	s2,s2,1
     a5a:	9d4a                	add	s10,s10,s2
                while (prec > buf_len) {
     a5c:	412d07b3          	sub	a5,s10,s2
     a60:	04fdc663          	blt	s11,a5,aac <__i_vfprintf+0x4b0>
     a64:	846e                	mv	s0,s11
                    my_putc (buf[--buf_len], stream);
     a66:	01810c93          	addi	s9,sp,24
                while (buf_len)
     a6a:	e829                	bnez	s0,abc <__i_vfprintf+0x4c0>
                width -= len;
     a6c:	409989b3          	sub	s3,s3,s1
     a70:	012d8633          	add	a2,s11,s2
     a74:	84da                	mv	s1,s6
     a76:	8932                	mv	s2,a2
     a78:	99b2                	add	s3,s3,a2
     a7a:	a095                	j	ade <__i_vfprintf+0x4e2>
                        my_putc (c, stream);
     a7c:	45a2                	lw	a1,8(sp)
     a7e:	0909                	addi	s2,s2,2
     a80:	8566                	mv	a0,s9
                    my_putc (z, stream);
     a82:	9a82                	jalr	s5
     a84:	fc055be3          	bgez	a0,a5a <__i_vfprintf+0x45e>
     a88:	b3c9                	j	84a <__i_vfprintf+0x24e>
                } else if (flags & (FL_NEGATIVE | FL_PLUS | FL_SPACE)) {
     a8a:	40647793          	andi	a5,s0,1030
     a8e:	d7f1                	beqz	a5,a5a <__i_vfprintf+0x45e>
                    unsigned char z = ' ';
     a90:	01e41513          	slli	a0,s0,0x1e
     a94:	857d                	srai	a0,a0,0x1f
     a96:	892d                	andi	a0,a0,11
                    if (flags & FL_NEGATIVE) z = '-';
     a98:	40047413          	andi	s0,s0,1024
                    unsigned char z = ' ';
     a9c:	02050513          	addi	a0,a0,32
                    if (flags & FL_NEGATIVE) z = '-';
     aa0:	c019                	beqz	s0,aa6 <__i_vfprintf+0x4aa>
     aa2:	02d00513          	li	a0,45
                    my_putc (z, stream);
     aa6:	45a2                	lw	a1,8(sp)
     aa8:	0905                	addi	s2,s2,1
     aaa:	bfe1                	j	a82 <__i_vfprintf+0x486>
                    my_putc ('0', stream);
     aac:	45a2                	lw	a1,8(sp)
     aae:	03000513          	li	a0,48
     ab2:	0905                	addi	s2,s2,1
     ab4:	9a82                	jalr	s5
     ab6:	fa0553e3          	bgez	a0,a5c <__i_vfprintf+0x460>
     aba:	bb41                	j	84a <__i_vfprintf+0x24e>
                    my_putc (buf[--buf_len], stream);
     abc:	147d                	addi	s0,s0,-1
     abe:	008c87b3          	add	a5,s9,s0
     ac2:	45a2                	lw	a1,8(sp)
     ac4:	0007c503          	lbu	a0,0(a5)
     ac8:	9a82                	jalr	s5
     aca:	fa0550e3          	bgez	a0,a6a <__i_vfprintf+0x46e>
     ace:	bbb5                	j	84a <__i_vfprintf+0x24e>
	    my_putc (' ', stream);
     ad0:	45a2                	lw	a1,8(sp)
     ad2:	02000513          	li	a0,32
     ad6:	0905                	addi	s2,s2,1
     ad8:	9a82                	jalr	s5
     ada:	d60548e3          	bltz	a0,84a <__i_vfprintf+0x24e>
	while (width-- > 0) {
     ade:	412987b3          	sub	a5,s3,s2
     ae2:	fef047e3          	bgtz	a5,ad0 <__i_vfprintf+0x4d4>
     ae6:	be85                	j	656 <__i_vfprintf+0x5a>

00000ae8 <litex_getc>:
	return c;
}

static int
litex_getc(FILE *file)
{
     ae8:	1141                	addi	sp,sp,-16
     aea:	c606                	sw	ra,12(sp)
	(void) file; /* Not used in this function */
	while(1) {
#ifdef CSR_UART_BASE
		if(uart_read_nonblock())
     aec:	2e45                	jal	e9c <uart_read_nonblock>
     aee:	dd7d                	beqz	a0,aec <litex_getc+0x4>
			return uart_read();
     af0:	2671                	jal	e7c <uart_read>
#endif
	}
	return -1;
}
     af2:	40b2                	lw	ra,12(sp)
     af4:	0141                	addi	sp,sp,16
     af6:	8082                	ret

00000af8 <litex_putc>:
{
     af8:	1141                	addi	sp,sp,-16
     afa:	c422                	sw	s0,8(sp)
     afc:	c606                	sw	ra,12(sp)
     afe:	842a                	mv	s0,a0
	uart_write(c);
     b00:	266d                	jal	eaa <uart_write>
	if (c == '\n')
     b02:	47a9                	li	a5,10
     b04:	00f41563          	bne	s0,a5,b0e <litex_putc+0x16>
		litex_putc('\r', NULL);
     b08:	4581                	li	a1,0
     b0a:	4535                	li	a0,13
     b0c:	37f5                	jal	af8 <litex_putc>
}
     b0e:	40b2                	lw	ra,12(sp)
     b10:	8522                	mv	a0,s0
     b12:	4422                	lw	s0,8(sp)
     b14:	0141                	addi	sp,sp,16
     b16:	8082                	ret

00000b18 <__udivmoddi4>:

/* Translated from Figure 3-40 of The PowerPC Compiler Writer's Guide */

COMPILER_RT_ABI du_int
__udivmoddi4(du_int a, du_int b, du_int* rem)
{
     b18:	7179                	addi	sp,sp,-48
     b1a:	d422                	sw	s0,40(sp)
     b1c:	ce4e                	sw	s3,28(sp)
     b1e:	cc52                	sw	s4,24(sp)
     b20:	ca56                	sw	s5,20(sp)
     b22:	d606                	sw	ra,44(sp)
     b24:	d226                	sw	s1,36(sp)
     b26:	d04a                	sw	s2,32(sp)
     b28:	c85a                	sw	s6,16(sp)
     b2a:	c65e                	sw	s7,12(sp)
     b2c:	842a                	mv	s0,a0
     b2e:	8ab2                	mv	s5,a2
     b30:	8a36                	mv	s4,a3
     b32:	89ba                	mv	s3,a4
    d.all = b;
    udwords q;
    udwords r;
    unsigned sr;
    /* special cases, X is unknown, K != 0 */
    if (n.s.high == 0)
     b34:	ed9d                	bnez	a1,b72 <__udivmoddi4+0x5a>
    {
        if (d.s.high == 0)
     b36:	e69d                	bnez	a3,b64 <__udivmoddi4+0x4c>
        {
            /* 0 X
             * ---
             * 0 X
             */
            if (rem)
     b38:	c711                	beqz	a4,b44 <__udivmoddi4+0x2c>
                *rem = n.s.low % d.s.low;
     b3a:	02c577b3          	remu	a5,a0,a2
     b3e:	00072223          	sw	zero,4(a4)
     b42:	c31c                	sw	a5,0(a4)
            return n.s.low / d.s.low;
     b44:	03545433          	divu	s0,s0,s5
         * ---
         * K X
         */
        if (rem)
            *rem = n.s.low;
        return 0;
     b48:	4481                	li	s1,0
    }
    q.all = (q.all << 1) | carry;
    if (rem)
        *rem = r.all;
    return q.all;
}
     b4a:	50b2                	lw	ra,44(sp)
     b4c:	8522                	mv	a0,s0
     b4e:	5422                	lw	s0,40(sp)
     b50:	5902                	lw	s2,32(sp)
     b52:	49f2                	lw	s3,28(sp)
     b54:	4a62                	lw	s4,24(sp)
     b56:	4ad2                	lw	s5,20(sp)
     b58:	4b42                	lw	s6,16(sp)
     b5a:	4bb2                	lw	s7,12(sp)
     b5c:	85a6                	mv	a1,s1
     b5e:	5492                	lw	s1,36(sp)
     b60:	6145                	addi	sp,sp,48
     b62:	8082                	ret
        if (rem)
     b64:	c709                	beqz	a4,b6e <__udivmoddi4+0x56>
            *rem = n.s.low;
     b66:	00a9a023          	sw	a0,0(s3)
     b6a:	00072223          	sw	zero,4(a4)
        return 0;
     b6e:	4401                	li	s0,0
     b70:	bfe1                	j	b48 <__udivmoddi4+0x30>
     b72:	84ae                	mv	s1,a1
     b74:	8bae                	mv	s7,a1
    if (d.s.low == 0)
     b76:	8b32                	mv	s6,a2
     b78:	0e061a63          	bnez	a2,c6c <__udivmoddi4+0x154>
        if (d.s.high == 0)
     b7c:	e291                	bnez	a3,b80 <__udivmoddi4+0x68>
                *rem = n.s.high % d.s.low;
     b7e:	9002                	ebreak
        if (n.s.low == 0)
     b80:	e911                	bnez	a0,b94 <__udivmoddi4+0x7c>
            if (rem)
     b82:	c711                	beqz	a4,b8e <__udivmoddi4+0x76>
                r.s.high = n.s.high % d.s.high;
     b84:	02d5f7b3          	remu	a5,a1,a3
                *rem = r.all;
     b88:	00072023          	sw	zero,0(a4)
     b8c:	c35c                	sw	a5,4(a4)
            return n.s.high / d.s.high;
     b8e:	0344d433          	divu	s0,s1,s4
     b92:	bf5d                	j	b48 <__udivmoddi4+0x30>
        if ((d.s.high & (d.s.high - 1)) == 0)     /* if d is a power of 2 */
     b94:	fff68793          	addi	a5,a3,-1
     b98:	00d7f733          	and	a4,a5,a3
     b9c:	ef09                	bnez	a4,bb6 <__udivmoddi4+0x9e>
            if (rem)
     b9e:	00098763          	beqz	s3,bac <__udivmoddi4+0x94>
                r.s.high = n.s.high & (d.s.high - 1);
     ba2:	8fed                	and	a5,a5,a1
                *rem = r.all;
     ba4:	00a9a023          	sw	a0,0(s3)
     ba8:	00f9a223          	sw	a5,4(s3)
            return n.s.high >> __builtin_ctz(d.s.high);
     bac:	8552                	mv	a0,s4
     bae:	2409                	jal	db0 <__ctzsi2>
     bb0:	00a4d433          	srl	s0,s1,a0
     bb4:	bf51                	j	b48 <__udivmoddi4+0x30>
        sr = __builtin_clz(d.s.high) - __builtin_clz(n.s.high);
     bb6:	8536                	mv	a0,a3
     bb8:	2a59                	jal	d4e <__clzsi2>
     bba:	892a                	mv	s2,a0
     bbc:	8526                	mv	a0,s1
     bbe:	2a41                	jal	d4e <__clzsi2>
     bc0:	40a907b3          	sub	a5,s2,a0
        if (sr > n_uword_bits - 2)
     bc4:	4779                	li	a4,30
     bc6:	00f77963          	bgeu	a4,a5,bd8 <__udivmoddi4+0xc0>
           if (rem)
     bca:	fa0982e3          	beqz	s3,b6e <__udivmoddi4+0x56>
                *rem = n.all;
     bce:	0089a023          	sw	s0,0(s3)
     bd2:	0099a223          	sw	s1,4(s3)
     bd6:	bf61                	j	b6e <__udivmoddi4+0x56>
        ++sr;
     bd8:	0785                	addi	a5,a5,1
        q.s.high = n.s.low << (n_uword_bits - sr);
     bda:	02000713          	li	a4,32
     bde:	8f1d                	sub	a4,a4,a5
     be0:	00e41833          	sll	a6,s0,a4
        r.s.low = (n.s.high << (n_uword_bits - sr)) | (n.s.low >> sr);
     be4:	00e49733          	sll	a4,s1,a4
     be8:	00f45433          	srl	s0,s0,a5
        r.s.high = n.s.high >> sr;
     bec:	00f4d933          	srl	s2,s1,a5
        r.s.low = (n.s.high << (n_uword_bits - sr)) | (n.s.low >> sr);
     bf0:	00876bb3          	or	s7,a4,s0
                r.s.high = n.s.high >> sr;
     bf4:	85ca                	mv	a1,s2
                r.s.low = (n.s.high << (n_uword_bits - sr)) | (n.s.low >> sr);
     bf6:	855e                	mv	a0,s7
     bf8:	4881                	li	a7,0
        r.s.high = (r.s.high << 1) | (r.s.low  >> (n_uword_bits - 1));
     bfa:	01f55713          	srli	a4,a0,0x1f
     bfe:	0586                	slli	a1,a1,0x1
     c00:	8dd9                	or	a1,a1,a4
        r.s.low  = (r.s.low  << 1) | (q.s.high >> (n_uword_bits - 1));
     c02:	0506                	slli	a0,a0,0x1
     c04:	01f85713          	srli	a4,a6,0x1f
     c08:	8d59                	or	a0,a0,a4
        q.s.high = (q.s.high << 1) | (q.s.low  >> (n_uword_bits - 1));
     c0a:	0806                	slli	a6,a6,0x1
     c0c:	01fb5713          	srli	a4,s6,0x1f
     c10:	00e86833          	or	a6,a6,a4
        q.s.low  = (q.s.low  << 1) | carry;
     c14:	0b06                	slli	s6,s6,0x1
        const di_int s = (di_int)(d.all - r.all - 1) >> (n_udword_bits - 1);
     c16:	40aa8733          	sub	a4,s5,a0
     c1a:	00eab6b3          	sltu	a3,s5,a4
        q.s.low  = (q.s.low  << 1) | carry;
     c1e:	011b6b33          	or	s6,s6,a7
        const di_int s = (di_int)(d.all - r.all - 1) >> (n_udword_bits - 1);
     c22:	40ba08b3          	sub	a7,s4,a1
     c26:	40d888b3          	sub	a7,a7,a3
     c2a:	00173713          	seqz	a4,a4
     c2e:	40e888b3          	sub	a7,a7,a4
     c32:	41f8d693          	srai	a3,a7,0x1f
        r.all -= d.all & s;
     c36:	0156f733          	and	a4,a3,s5
     c3a:	40e50733          	sub	a4,a0,a4
     c3e:	0146f6b3          	and	a3,a3,s4
     c42:	00e53633          	sltu	a2,a0,a4
     c46:	8d95                	sub	a1,a1,a3
    for (; sr > 0; --sr)
     c48:	17fd                	addi	a5,a5,-1
        carry = s & 1;
     c4a:	01f8d893          	srli	a7,a7,0x1f
        r.all -= d.all & s;
     c4e:	853a                	mv	a0,a4
     c50:	8d91                	sub	a1,a1,a2
    for (; sr > 0; --sr)
     c52:	f7c5                	bnez	a5,bfa <__udivmoddi4+0xe2>
    if (rem)
     c54:	0e099863          	bnez	s3,d44 <__udivmoddi4+0x22c>
    q.all = (q.all << 1) | carry;
     c58:	01fb5493          	srli	s1,s6,0x1f
     c5c:	0806                	slli	a6,a6,0x1
     c5e:	001b1413          	slli	s0,s6,0x1
     c62:	01146433          	or	s0,s0,a7
     c66:	0104e4b3          	or	s1,s1,a6
     c6a:	b5c5                	j	b4a <__udivmoddi4+0x32>
        if (d.s.high == 0)
     c6c:	eed9                	bnez	a3,d0a <__udivmoddi4+0x1f2>
            if ((d.s.low & (d.s.low - 1)) == 0)     /* if d is a power of 2 */
     c6e:	fff60793          	addi	a5,a2,-1
     c72:	00c7f733          	and	a4,a5,a2
     c76:	eb05                	bnez	a4,ca6 <__udivmoddi4+0x18e>
                if (rem)
     c78:	00098763          	beqz	s3,c86 <__udivmoddi4+0x16e>
                    *rem = n.s.low & (d.s.low - 1);
     c7c:	8fe9                	and	a5,a5,a0
     c7e:	00f9a023          	sw	a5,0(s3)
     c82:	0009a223          	sw	zero,4(s3)
                if (d.s.low == 1)
     c86:	4785                	li	a5,1
     c88:	ecfa81e3          	beq	s5,a5,b4a <__udivmoddi4+0x32>
                sr = __builtin_ctz(d.s.low);
     c8c:	8556                	mv	a0,s5
     c8e:	220d                	jal	db0 <__ctzsi2>
                q.s.low = (n.s.high << (n_uword_bits - sr)) | (n.s.low >> sr);
     c90:	02000793          	li	a5,32
     c94:	8f89                	sub	a5,a5,a0
     c96:	00f497b3          	sll	a5,s1,a5
     c9a:	00a45433          	srl	s0,s0,a0
     c9e:	8c5d                	or	s0,s0,a5
                return q.all;
     ca0:	00a4d4b3          	srl	s1,s1,a0
     ca4:	b55d                	j	b4a <__udivmoddi4+0x32>
            sr = 1 + n_uword_bits + __builtin_clz(d.s.low) - __builtin_clz(n.s.high);
     ca6:	8532                	mv	a0,a2
     ca8:	8936                	mv	s2,a3
     caa:	2055                	jal	d4e <__clzsi2>
     cac:	84aa                	mv	s1,a0
     cae:	855e                	mv	a0,s7
     cb0:	2879                	jal	d4e <__clzsi2>
     cb2:	40a485b3          	sub	a1,s1,a0
     cb6:	02158793          	addi	a5,a1,33
            if (sr == n_uword_bits)
     cba:	02000713          	li	a4,32
     cbe:	8822                	mv	a6,s0
     cc0:	4b01                	li	s6,0
     cc2:	f2e789e3          	beq	a5,a4,bf4 <__udivmoddi4+0xdc>
            else if (sr < n_uword_bits)  // 2 <= sr <= n_uword_bits - 1
     cc6:	46fd                	li	a3,31
     cc8:	00f6ef63          	bltu	a3,a5,ce6 <__udivmoddi4+0x1ce>
                q.s.high = n.s.low << (n_uword_bits - sr);
     ccc:	8f1d                	sub	a4,a4,a5
                r.s.high = n.s.high >> sr;
     cce:	00fbd5b3          	srl	a1,s7,a5
                r.s.low = (n.s.high << (n_uword_bits - sr)) | (n.s.low >> sr);
     cd2:	00eb9533          	sll	a0,s7,a4
     cd6:	00f456b3          	srl	a3,s0,a5
     cda:	00d56bb3          	or	s7,a0,a3
     cde:	892e                	mv	s2,a1
     ce0:	00e41833          	sll	a6,s0,a4
     ce4:	bf01                	j	bf4 <__udivmoddi4+0xdc>
                q.s.low = n.s.low << (n_udword_bits - sr);
     ce6:	04000713          	li	a4,64
     cea:	8f1d                	sub	a4,a4,a5
                           (n.s.low >> (sr - n_uword_bits));
     cec:	0585                	addi	a1,a1,1
                q.s.low = n.s.low << (n_udword_bits - sr);
     cee:	00e41b33          	sll	s6,s0,a4
                           (n.s.low >> (sr - n_uword_bits));
     cf2:	00b45833          	srl	a6,s0,a1
                q.s.high = (n.s.high << (n_udword_bits - sr)) |
     cf6:	00eb9733          	sll	a4,s7,a4
     cfa:	01076833          	or	a6,a4,a6
                r.s.low = n.s.high >> (sr - n_uword_bits);
     cfe:	00bbdbb3          	srl	s7,s7,a1
     d02:	bdcd                	j	bf4 <__udivmoddi4+0xdc>
     d04:	4b01                	li	s6,0
     d06:	4901                	li	s2,0
     d08:	b5f5                	j	bf4 <__udivmoddi4+0xdc>
            sr = __builtin_clz(d.s.high) - __builtin_clz(n.s.high);
     d0a:	8536                	mv	a0,a3
     d0c:	2089                	jal	d4e <__clzsi2>
     d0e:	892a                	mv	s2,a0
     d10:	8526                	mv	a0,s1
     d12:	2835                	jal	d4e <__clzsi2>
     d14:	40a907b3          	sub	a5,s2,a0
            if (sr > n_uword_bits - 1)
     d18:	477d                	li	a4,31
     d1a:	eaf768e3          	bltu	a4,a5,bca <__udivmoddi4+0xb2>
            ++sr;
     d1e:	0785                	addi	a5,a5,1
            if (sr == n_uword_bits)
     d20:	02000713          	li	a4,32
     d24:	8822                	mv	a6,s0
     d26:	fce78fe3          	beq	a5,a4,d04 <__udivmoddi4+0x1ec>
                q.s.high = n.s.low << (n_uword_bits - sr);
     d2a:	8f1d                	sub	a4,a4,a5
                r.s.low = (n.s.high << (n_uword_bits - sr)) | (n.s.low >> sr);
     d2c:	00e49533          	sll	a0,s1,a4
     d30:	00f456b3          	srl	a3,s0,a5
                r.s.high = n.s.high >> sr;
     d34:	00f4d933          	srl	s2,s1,a5
                r.s.low = (n.s.high << (n_uword_bits - sr)) | (n.s.low >> sr);
     d38:	00d56bb3          	or	s7,a0,a3
     d3c:	00e41833          	sll	a6,s0,a4
     d40:	4b01                	li	s6,0
     d42:	bd4d                	j	bf4 <__udivmoddi4+0xdc>
        *rem = r.all;
     d44:	00e9a023          	sw	a4,0(s3)
     d48:	00b9a223          	sw	a1,4(s3)
     d4c:	b731                	j	c58 <__udivmoddi4+0x140>

00000d4e <__clzsi2>:

COMPILER_RT_ABI si_int
__clzsi2(si_int a)
{
    su_int x = (su_int)a;
    si_int t = ((x & 0xFFFF0000) == 0) << 4;  /* if (x is small) t = 16 else 0 */
     d4e:	66c1                	lui	a3,0x10
     d50:	00d536b3          	sltu	a3,a0,a3
     d54:	0692                	slli	a3,a3,0x4
    x >>= 16 - t;      /* x = [0 - 0xFFFF] */
     d56:	47c1                	li	a5,16
     d58:	8f95                	sub	a5,a5,a3
    su_int r = t;       /* r = [0, 16] */
    /* return r + clz(x) */
    t = ((x & 0xFF00) == 0) << 3;
     d5a:	6741                	lui	a4,0x10
    x >>= 16 - t;      /* x = [0 - 0xFFFF] */
     d5c:	00f557b3          	srl	a5,a0,a5
    t = ((x & 0xFF00) == 0) << 3;
     d60:	f0070713          	addi	a4,a4,-256 # ff00 <_fdata_rom+0xeb24>
     d64:	8f7d                	and	a4,a4,a5
     d66:	00173713          	seqz	a4,a4
     d6a:	070e                	slli	a4,a4,0x3
    x >>= 8 - t;       /* x = [0 - 0xFF] */
     d6c:	4621                	li	a2,8
     d6e:	8e19                	sub	a2,a2,a4
     d70:	00c7d7b3          	srl	a5,a5,a2
    r += t;            /* r = [0, 8, 16, 24] */
     d74:	9736                	add	a4,a4,a3
    /* return r + clz(x) */
    t = ((x & 0xF0) == 0) << 2;
     d76:	0f07f693          	andi	a3,a5,240
     d7a:	0016b693          	seqz	a3,a3
     d7e:	068a                	slli	a3,a3,0x2
    x >>= 4 - t;       /* x = [0 - 0xF] */
     d80:	4611                	li	a2,4
     d82:	8e15                	sub	a2,a2,a3
     d84:	00c7d7b3          	srl	a5,a5,a2
    r += t;            /* r = [0, 4, 8, 12, 16, 20, 24, 28] */
     d88:	96ba                	add	a3,a3,a4
    /* return r + clz(x) */
    t = ((x & 0xC) == 0) << 1;
     d8a:	00c7f713          	andi	a4,a5,12
     d8e:	00173713          	seqz	a4,a4
    x >>= 2 - t;       /* x = [0 - 3] */
     d92:	4509                	li	a0,2
    t = ((x & 0xC) == 0) << 1;
     d94:	0706                	slli	a4,a4,0x1
    x >>= 2 - t;       /* x = [0 - 3] */
     d96:	40e50633          	sub	a2,a0,a4
     d9a:	00c7d7b3          	srl	a5,a5,a2
 *     case 2:
 *     case 3:
 *         return r;
 *     }
 */
    return r + ((2 - x) & -((x & 2) == 0));
     d9e:	0017d613          	srli	a2,a5,0x1
     da2:	8a05                	andi	a2,a2,1
     da4:	8d1d                	sub	a0,a0,a5
     da6:	c211                	beqz	a2,daa <__clzsi2+0x5c>
     da8:	4501                	li	a0,0
    r += t;            /* r = [0 - 30] and is even */
     daa:	9736                	add	a4,a4,a3
}
     dac:	953a                	add	a0,a0,a4
     dae:	8082                	ret

00000db0 <__ctzsi2>:

COMPILER_RT_ABI si_int
__ctzsi2(si_int a)
{
    su_int x = (su_int)a;
    si_int t = ((x & 0x0000FFFF) == 0) << 4;  /* if (x has no small bits) t = 16 else 0 */
     db0:	01051693          	slli	a3,a0,0x10
     db4:	82c1                	srli	a3,a3,0x10
     db6:	0016b693          	seqz	a3,a3
     dba:	0692                	slli	a3,a3,0x4
    x >>= t;           /* x = [0 - 0xFFFF] + higher garbage bits */
     dbc:	00d557b3          	srl	a5,a0,a3
    su_int r = t;       /* r = [0, 16]  */
    /* return r + ctz(x) */
    t = ((x & 0x00FF) == 0) << 3;
     dc0:	0ff7f713          	zext.b	a4,a5
     dc4:	00173713          	seqz	a4,a4
     dc8:	070e                	slli	a4,a4,0x3
    x >>= t;           /* x = [0 - 0xFF] + higher garbage bits */
     dca:	00e7d7b3          	srl	a5,a5,a4
    r += t;            /* r = [0, 8, 16, 24] */
     dce:	96ba                	add	a3,a3,a4
    /* return r + ctz(x) */
    t = ((x & 0x0F) == 0) << 2;
     dd0:	00f7f713          	andi	a4,a5,15
     dd4:	00173713          	seqz	a4,a4
     dd8:	070a                	slli	a4,a4,0x2
    x >>= t;           /* x = [0 - 0xF] + higher garbage bits */
     dda:	00e7d7b3          	srl	a5,a5,a4
    r += t;            /* r = [0, 4, 8, 12, 16, 20, 24, 28] */
     dde:	96ba                	add	a3,a3,a4
    /* return r + ctz(x) */
    t = ((x & 0x3) == 0) << 1;
     de0:	0037f713          	andi	a4,a5,3
     de4:	00173713          	seqz	a4,a4
     de8:	0706                	slli	a4,a4,0x1
    x >>= t;
     dea:	00e7d7b3          	srl	a5,a5,a4
    x &= 3;            /* x = [0 - 3] */
     dee:	8b8d                	andi	a5,a5,3
 *     case 1:
 *     case 3:
 *         return r;
 *     }
 */
    return r + ((2 - (x >> 1)) & -((x & 1) == 0));
     df0:	fff7c513          	not	a0,a5
     df4:	4609                	li	a2,2
     df6:	8385                	srli	a5,a5,0x1
     df8:	40f607b3          	sub	a5,a2,a5
     dfc:	8905                	andi	a0,a0,1
     dfe:	02f50533          	mul	a0,a0,a5
    r += t;            /* r = [0 - 30] and is even */
     e02:	9736                	add	a4,a4,a3
}
     e04:	953a                	add	a0,a0,a4
     e06:	8082                	ret

00000e08 <__udivdi3>:
/* Returns: a / b */

COMPILER_RT_ABI du_int
__udivdi3(du_int a, du_int b)
{
    return __udivmoddi4(a, b, 0);
     e08:	4701                	li	a4,0
     e0a:	b339                	j	b18 <__udivmoddi4>

00000e0c <__umoddi3>:

/* Returns: a % b */

COMPILER_RT_ABI du_int
__umoddi3(du_int a, du_int b)
{
     e0c:	1101                	addi	sp,sp,-32
    du_int r;
    __udivmoddi4(a, b, &r);
     e0e:	0038                	addi	a4,sp,8
{
     e10:	ce06                	sw	ra,28(sp)
    __udivmoddi4(a, b, &r);
     e12:	3319                	jal	b18 <__udivmoddi4>
    return r;
}
     e14:	40f2                	lw	ra,28(sp)
     e16:	4522                	lw	a0,8(sp)
     e18:	45b2                	lw	a1,12(sp)
     e1a:	6105                	addi	sp,sp,32
     e1c:	8082                	ret

00000e1e <flush_l2_cache>:
	unsigned int i;
	for(i=0;i<2*CONFIG_L2_SIZE/4;i++) {
		((volatile unsigned int *) MAIN_RAM_BASE)[i];
	}
#endif
}
     e1e:	8082                	ret

00000e20 <busy_wait>:

void busy_wait(unsigned int ms)
{
	timer0_en_write(0);
	timer0_reload_write(0);
	timer0_load_write(CONFIG_CLOCK_FREQUENCY/1000*ms);
     e20:	6721                	lui	a4,0x8
     e22:	23570713          	addi	a4,a4,565 # 8235 <_fdata_rom+0x6e59>
     e26:	02e50533          	mul	a0,a0,a4
     e2a:	820057b7          	lui	a5,0x82005
     e2e:	0007a423          	sw	zero,8(a5) # 82005008 <_fstack+0x81003008>
     e32:	0007a223          	sw	zero,4(a5)
     e36:	4685                	li	a3,1
     e38:	873e                	mv	a4,a5
	return MMPTR(a);
     e3a:	0741                	addi	a4,a4,16
	MMPTR(a) = v;
     e3c:	c388                	sw	a0,0(a5)
     e3e:	c794                	sw	a3,8(a5)
     e40:	c7d4                	sw	a3,12(a5)
     e42:	07b1                	addi	a5,a5,12
	return MMPTR(a);
     e44:	4310                	lw	a2,0(a4)
	timer0_en_write(1);
	timer0_update_value_write(1);
	while(timer0_value_read()) timer0_update_value_write(1);
     e46:	e211                	bnez	a2,e4a <busy_wait+0x2a>
}
     e48:	8082                	ret
	MMPTR(a) = v;
     e4a:	c394                	sw	a3,0(a5)
}
     e4c:	bfe5                	j	e44 <busy_wait+0x24>

00000e4e <busy_wait_us>:

void busy_wait_us(unsigned int us)
{
	timer0_en_write(0);
	timer0_reload_write(0);
	timer0_load_write(CONFIG_CLOCK_FREQUENCY/1000000*us);
     e4e:	02100713          	li	a4,33
     e52:	02e50533          	mul	a0,a0,a4
     e56:	820057b7          	lui	a5,0x82005
     e5a:	0007a423          	sw	zero,8(a5) # 82005008 <_fstack+0x81003008>
     e5e:	0007a223          	sw	zero,4(a5)
     e62:	4685                	li	a3,1
     e64:	873e                	mv	a4,a5
	return MMPTR(a);
     e66:	0741                	addi	a4,a4,16
	MMPTR(a) = v;
     e68:	c388                	sw	a0,0(a5)
     e6a:	c794                	sw	a3,8(a5)
     e6c:	c7d4                	sw	a3,12(a5)
     e6e:	07b1                	addi	a5,a5,12
	return MMPTR(a);
     e70:	4310                	lw	a2,0(a4)
	timer0_en_write(1);
	timer0_update_value_write(1);
	while(timer0_value_read()) timer0_update_value_write(1);
     e72:	e211                	bnez	a2,e76 <busy_wait_us+0x28>
}
     e74:	8082                	ret
	MMPTR(a) = v;
     e76:	c394                	sw	a3,0(a5)
     e78:	bfe5                	j	e70 <busy_wait_us+0x22>

00000e7a <uart_isr>:

#else

void uart_isr(void)
{
}
     e7a:	8082                	ret

00000e7c <uart_read>:
	return MMPTR(a);
     e7c:	820067b7          	lui	a5,0x82006
     e80:	80878793          	addi	a5,a5,-2040 # 82005808 <_fstack+0x81003808>
     e84:	4398                	lw	a4,0(a5)

char uart_read(void)
{
	char c;
	while (uart_rxempty_read());
     e86:	ff7d                	bnez	a4,e84 <uart_read+0x8>
     e88:	820067b7          	lui	a5,0x82006
     e8c:	8007a503          	lw	a0,-2048(a5) # 82005800 <_fstack+0x81003800>
	MMPTR(a) = v;
     e90:	4709                	li	a4,2
     e92:	80e7a823          	sw	a4,-2032(a5)
	c = uart_rxtx_read();
	uart_ev_pending_write(UART_EV_RX);
	return c;
}
     e96:	0ff57513          	zext.b	a0,a0
     e9a:	8082                	ret

00000e9c <uart_read_nonblock>:
	return MMPTR(a);
     e9c:	820067b7          	lui	a5,0x82006
     ea0:	8087a503          	lw	a0,-2040(a5) # 82005808 <_fstack+0x81003808>

int uart_read_nonblock(void)
{
	return (uart_rxempty_read() == 0);
}
     ea4:	00153513          	seqz	a0,a0
     ea8:	8082                	ret

00000eaa <uart_write>:
     eaa:	820067b7          	lui	a5,0x82006
     eae:	80478793          	addi	a5,a5,-2044 # 82005804 <_fstack+0x81003804>
     eb2:	4398                	lw	a4,0(a5)

void uart_write(char c)
{
	while (uart_txfull_read());
     eb4:	ff7d                	bnez	a4,eb2 <uart_write+0x8>
	MMPTR(a) = v;
     eb6:	820067b7          	lui	a5,0x82006
     eba:	80a7a023          	sw	a0,-2048(a5) # 82005800 <_fstack+0x81003800>
     ebe:	4705                	li	a4,1
     ec0:	80e7a823          	sw	a4,-2032(a5)
	uart_rxtx_write(c);
	uart_ev_pending_write(UART_EV_TX);
}
     ec4:	8082                	ret

00000ec6 <uart_init>:
	return MMPTR(a);
     ec6:	820067b7          	lui	a5,0x82006
     eca:	81078793          	addi	a5,a5,-2032 # 82005810 <_fstack+0x81003810>
     ece:	4398                	lw	a4,0(a5)
	MMPTR(a) = v;
     ed0:	c398                	sw	a4,0(a5)
     ed2:	820067b7          	lui	a5,0x82006
     ed6:	470d                	li	a4,3
     ed8:	80e7aa23          	sw	a4,-2028(a5) # 82005814 <_fstack+0x81003814>

void uart_init(void)
{
	uart_ev_pending_write(uart_ev_pending_read());
	uart_ev_enable_write(UART_EV_TX | UART_EV_RX);
}
     edc:	8082                	ret

00000ede <uart_sync>:
	return MMPTR(a);
     ede:	820067b7          	lui	a5,0x82006
     ee2:	80478793          	addi	a5,a5,-2044 # 82005804 <_fstack+0x81003804>
     ee6:	4398                	lw	a4,0(a5)

void uart_sync(void)
{
	while (uart_txfull_read());
     ee8:	ff7d                	bnez	a4,ee6 <uart_sync+0x8>
}
     eea:	8082                	ret

00000eec <i2c_w_write>:
	MMPTR(a) = v;
     eec:	820047b7          	lui	a5,0x82004
     ef0:	c388                	sw	a0,0(a5)
}
     ef2:	8082                	ret

00000ef4 <i2c_r_read>:
	return MMPTR(a);
     ef4:	820047b7          	lui	a5,0x82004
     ef8:	43c8                	lw	a0,4(a5)
}
     efa:	8082                	ret

00000efc <i2c_oe_scl_sda>:
	return 0;
}

static inline void i2c_oe_scl_sda(bool oe, bool scl, bool sda)
{
	struct i2c_ops ops = i2c_devs[current_i2c_dev].ops;
     efc:	010007b7          	lui	a5,0x1000
     f00:	02c7a703          	lw	a4,44(a5) # 100002c <current_i2c_dev>
     f04:	47e1                	li	a5,24
     f06:	02f70733          	mul	a4,a4,a5
     f0a:	010007b7          	lui	a5,0x1000
     f0e:	01078793          	addi	a5,a5,16 # 1000010 <i2c_devs>
     f12:	97ba                	add	a5,a5,a4

	ops.write(
		((oe & 1)  << ops.w_oe_offset)	|
		((scl & 1) << ops.w_scl_offset) |
     f14:	47d8                	lw	a4,12(a5)
     f16:	00e595b3          	sll	a1,a1,a4
		((sda & 1) << ops.w_sda_offset)
     f1a:	4b98                	lw	a4,16(a5)
     f1c:	00e61633          	sll	a2,a2,a4
		((oe & 1)  << ops.w_oe_offset)	|
     f20:	4bd8                	lw	a4,20(a5)
	ops.write(
     f22:	43dc                	lw	a5,4(a5)
		((scl & 1) << ops.w_scl_offset) |
     f24:	8dd1                	or	a1,a1,a2
		((oe & 1)  << ops.w_oe_offset)	|
     f26:	00e51533          	sll	a0,a0,a4
	ops.write(
     f2a:	8d4d                	or	a0,a0,a1
     f2c:	8782                	jr	a5

00000f2e <i2c_stop>:
	I2C_DELAY(1);
}

// STOP condition: 0-to-1 transition of SDA when SCL is 1
static void i2c_stop(void)
{
     f2e:	1141                	addi	sp,sp,-16
	i2c_oe_scl_sda(1, 0, 0);
     f30:	4601                	li	a2,0
     f32:	4581                	li	a1,0
     f34:	4505                	li	a0,1
{
     f36:	c606                	sw	ra,12(sp)
	i2c_oe_scl_sda(1, 0, 0);
     f38:	37d1                	jal	efc <i2c_oe_scl_sda>
	I2C_DELAY(1);
     f3a:	4515                	li	a0,5
     f3c:	3f09                	jal	e4e <busy_wait_us>
	i2c_oe_scl_sda(1, 1, 0);
     f3e:	4585                	li	a1,1
     f40:	852e                	mv	a0,a1
     f42:	4601                	li	a2,0
     f44:	3f65                	jal	efc <i2c_oe_scl_sda>
	I2C_DELAY(1);
     f46:	4515                	li	a0,5
     f48:	3719                	jal	e4e <busy_wait_us>
	i2c_oe_scl_sda(1, 1, 1);
     f4a:	4605                	li	a2,1
     f4c:	85b2                	mv	a1,a2
     f4e:	8532                	mv	a0,a2
     f50:	3775                	jal	efc <i2c_oe_scl_sda>
	I2C_DELAY(1);
     f52:	4515                	li	a0,5
     f54:	3ded                	jal	e4e <busy_wait_us>
	i2c_oe_scl_sda(0, 1, 1);
}
     f56:	40b2                	lw	ra,12(sp)
	i2c_oe_scl_sda(0, 1, 1);
     f58:	4605                	li	a2,1
     f5a:	85b2                	mv	a1,a2
     f5c:	4501                	li	a0,0
}
     f5e:	0141                	addi	sp,sp,16
	i2c_oe_scl_sda(0, 1, 1);
     f60:	bf71                	j	efc <i2c_oe_scl_sda>

00000f62 <i2c_start>:
	i2c_oe_scl_sda(1, 1, 1);
     f62:	4605                	li	a2,1
{
     f64:	1141                	addi	sp,sp,-16
	i2c_oe_scl_sda(1, 1, 1);
     f66:	85b2                	mv	a1,a2
     f68:	8532                	mv	a0,a2
{
     f6a:	c606                	sw	ra,12(sp)
	i2c_oe_scl_sda(1, 1, 1);
     f6c:	3f41                	jal	efc <i2c_oe_scl_sda>
	I2C_DELAY(1);
     f6e:	4515                	li	a0,5
     f70:	3df9                	jal	e4e <busy_wait_us>
	i2c_oe_scl_sda(1, 1, 0);
     f72:	4585                	li	a1,1
     f74:	852e                	mv	a0,a1
     f76:	4601                	li	a2,0
     f78:	3751                	jal	efc <i2c_oe_scl_sda>
	I2C_DELAY(1);
     f7a:	4515                	li	a0,5
     f7c:	3dc9                	jal	e4e <busy_wait_us>
	i2c_oe_scl_sda(1, 0, 0);
     f7e:	4505                	li	a0,1
     f80:	4601                	li	a2,0
     f82:	4581                	li	a1,0
     f84:	3fa5                	jal	efc <i2c_oe_scl_sda>
}
     f86:	40b2                	lw	ra,12(sp)
	I2C_DELAY(1);
     f88:	4515                	li	a0,5
}
     f8a:	0141                	addi	sp,sp,16
	I2C_DELAY(1);
     f8c:	b5c9                	j	e4e <busy_wait_us>

00000f8e <i2c_transmit_bit>:

// Call when in the middle of SCL low, advances one clk period
static void i2c_transmit_bit(int value)
{
     f8e:	1101                	addi	sp,sp,-32
	i2c_oe_scl_sda(1, 0, value);
     f90:	00157613          	andi	a2,a0,1
     f94:	4581                	li	a1,0
     f96:	4505                	li	a0,1
{
     f98:	ce06                	sw	ra,28(sp)
	i2c_oe_scl_sda(1, 0, value);
     f9a:	c632                	sw	a2,12(sp)
     f9c:	3785                	jal	efc <i2c_oe_scl_sda>
	I2C_DELAY(1);
     f9e:	4515                	li	a0,5
     fa0:	357d                	jal	e4e <busy_wait_us>
	i2c_oe_scl_sda(1, 1, value);
     fa2:	4632                	lw	a2,12(sp)
     fa4:	4585                	li	a1,1
     fa6:	852e                	mv	a0,a1
     fa8:	3f91                	jal	efc <i2c_oe_scl_sda>
	I2C_DELAY(2);
     faa:	4529                	li	a0,10
     fac:	354d                	jal	e4e <busy_wait_us>
	i2c_oe_scl_sda(1, 0, value);
     fae:	4632                	lw	a2,12(sp)
     fb0:	4505                	li	a0,1
     fb2:	4581                	li	a1,0
     fb4:	37a1                	jal	efc <i2c_oe_scl_sda>
	I2C_DELAY(1);
}
     fb6:	40f2                	lw	ra,28(sp)
	I2C_DELAY(1);
     fb8:	4515                	li	a0,5
}
     fba:	6105                	addi	sp,sp,32
	I2C_DELAY(1);
     fbc:	bd49                	j	e4e <busy_wait_us>

00000fbe <i2c_receive_bit>:

// Call when in the middle of SCL low, advances one clk period
static int i2c_receive_bit(void)
{
     fbe:	1141                	addi	sp,sp,-16
	int value;
	i2c_oe_scl_sda(0, 0, 0);
     fc0:	4601                	li	a2,0
     fc2:	4581                	li	a1,0
     fc4:	4501                	li	a0,0
{
     fc6:	c606                	sw	ra,12(sp)
     fc8:	c422                	sw	s0,8(sp)
	i2c_oe_scl_sda(0, 0, 0);
     fca:	3f0d                	jal	efc <i2c_oe_scl_sda>
	I2C_DELAY(1);
     fcc:	4515                	li	a0,5
     fce:	3541                	jal	e4e <busy_wait_us>
	i2c_oe_scl_sda(0, 1, 0);
     fd0:	4601                	li	a2,0
     fd2:	4585                	li	a1,1
     fd4:	4501                	li	a0,0
     fd6:	371d                	jal	efc <i2c_oe_scl_sda>
	I2C_DELAY(1);
     fd8:	4515                	li	a0,5
     fda:	3d95                	jal	e4e <busy_wait_us>
	// read in the middle of SCL high
	value = i2c_devs[current_i2c_dev].ops.read() & 1;
     fdc:	010007b7          	lui	a5,0x1000
     fe0:	02c7a703          	lw	a4,44(a5) # 100002c <current_i2c_dev>
     fe4:	47e1                	li	a5,24
     fe6:	02f70733          	mul	a4,a4,a5
     fea:	010007b7          	lui	a5,0x1000
     fee:	01078793          	addi	a5,a5,16 # 1000010 <i2c_devs>
     ff2:	97ba                	add	a5,a5,a4
     ff4:	479c                	lw	a5,8(a5)
     ff6:	9782                	jalr	a5
     ff8:	842a                	mv	s0,a0
	I2C_DELAY(1);
     ffa:	4515                	li	a0,5
     ffc:	3d89                	jal	e4e <busy_wait_us>
	i2c_oe_scl_sda(0, 0, 0);
     ffe:	4601                	li	a2,0
    1000:	4581                	li	a1,0
    1002:	4501                	li	a0,0
    1004:	3de5                	jal	efc <i2c_oe_scl_sda>
	I2C_DELAY(1);
    1006:	4515                	li	a0,5
    1008:	3599                	jal	e4e <busy_wait_us>
	return value;
}
    100a:	40b2                	lw	ra,12(sp)
    100c:	00147513          	andi	a0,s0,1
    1010:	4422                	lw	s0,8(sp)
    1012:	0141                	addi	sp,sp,16
    1014:	8082                	ret

00001016 <i2c_transmit_byte>:

// Send data byte and return 1 if slave sends ACK
static bool i2c_transmit_byte(unsigned char data)
{
    1016:	1141                	addi	sp,sp,-16
    1018:	c422                	sw	s0,8(sp)
	int i;
	int ack;

	// SCL should have already been low for 1/4 cycle
	// Keep SDA low to avoid short spikes from the pull-ups
	i2c_oe_scl_sda(1, 0, 0);
    101a:	4601                	li	a2,0
{
    101c:	842a                	mv	s0,a0
	i2c_oe_scl_sda(1, 0, 0);
    101e:	4581                	li	a1,0
    1020:	4505                	li	a0,1
{
    1022:	c226                	sw	s1,4(sp)
    1024:	c606                	sw	ra,12(sp)
	i2c_oe_scl_sda(1, 0, 0);
    1026:	44a1                	li	s1,8
    1028:	3dd1                	jal	efc <i2c_oe_scl_sda>
	for (i = 0; i < 8; ++i) {
		// MSB first
		i2c_transmit_bit((data & (1 << 7)) != 0);
    102a:	00745513          	srli	a0,s0,0x7
	for (i = 0; i < 8; ++i) {
    102e:	14fd                	addi	s1,s1,-1
		data <<= 1;
    1030:	0406                	slli	s0,s0,0x1
		i2c_transmit_bit((data & (1 << 7)) != 0);
    1032:	3fb1                	jal	f8e <i2c_transmit_bit>
		data <<= 1;
    1034:	0ff47413          	zext.b	s0,s0
	for (i = 0; i < 8; ++i) {
    1038:	f8ed                	bnez	s1,102a <i2c_transmit_byte+0x14>
	}
	i2c_oe_scl_sda(0, 0, 0); // release line
    103a:	4601                	li	a2,0
    103c:	4581                	li	a1,0
    103e:	4501                	li	a0,0
    1040:	3d75                	jal	efc <i2c_oe_scl_sda>
	ack = i2c_receive_bit();
    1042:	3fb5                	jal	fbe <i2c_receive_bit>

	// 0 from slave means ack
	return ack == 0;
}
    1044:	40b2                	lw	ra,12(sp)
    1046:	4422                	lw	s0,8(sp)
	return ack == 0;
    1048:	00154513          	xori	a0,a0,1
}
    104c:	4492                	lw	s1,4(sp)
    104e:	8905                	andi	a0,a0,1
    1050:	0141                	addi	sp,sp,16
    1052:	8082                	ret

00001054 <i2c_receive_byte>:

// Read data byte and send ACK if ack=1
static unsigned char i2c_receive_byte(bool ack)
{
    1054:	1141                	addi	sp,sp,-16
    1056:	c422                	sw	s0,8(sp)
    1058:	c226                	sw	s1,4(sp)
    105a:	c04a                	sw	s2,0(sp)
    105c:	c606                	sw	ra,12(sp)
    105e:	84aa                	mv	s1,a0
    1060:	4921                	li	s2,8
	int i;
	unsigned char data = 0;
    1062:	4401                	li	s0,0

	for (i = 0; i < 8; ++i) {
		data <<= 1;
		data |= i2c_receive_bit();
    1064:	3fa9                	jal	fbe <i2c_receive_bit>
    1066:	0406                	slli	s0,s0,0x1
    1068:	8c49                	or	s0,s0,a0
	for (i = 0; i < 8; ++i) {
    106a:	197d                	addi	s2,s2,-1
		data |= i2c_receive_bit();
    106c:	0ff47413          	zext.b	s0,s0
	for (i = 0; i < 8; ++i) {
    1070:	fe091ae3          	bnez	s2,1064 <i2c_receive_byte+0x10>
	}
	i2c_transmit_bit(!ack);
    1074:	0014c513          	xori	a0,s1,1
    1078:	3f19                	jal	f8e <i2c_transmit_bit>
	i2c_oe_scl_sda(0, 0, 0); // release line
    107a:	4501                	li	a0,0
    107c:	4601                	li	a2,0
    107e:	4581                	li	a1,0
    1080:	3db5                	jal	efc <i2c_oe_scl_sda>

	return data;
}
    1082:	40b2                	lw	ra,12(sp)
    1084:	8522                	mv	a0,s0
    1086:	4422                	lw	s0,8(sp)
    1088:	4492                	lw	s1,4(sp)
    108a:	4902                	lw	s2,0(sp)
    108c:	0141                	addi	sp,sp,16
    108e:	8082                	ret

00001090 <get_i2c_devs>:
struct i2c_dev *get_i2c_devs(void) { return i2c_devs; }
    1090:	01000537          	lui	a0,0x1000
    1094:	01050513          	addi	a0,a0,16 # 1000010 <i2c_devs>
    1098:	8082                	ret

0000109a <get_i2c_devs_count>:
int get_i2c_devs_count(void)       { return I2C_DEVS_COUNT; }
    109a:	4505                	li	a0,1
    109c:	8082                	ret

0000109e <set_i2c_active_dev>:
void set_i2c_active_dev(int dev)   { current_i2c_dev = dev; }
    109e:	010007b7          	lui	a5,0x1000
    10a2:	02a7a623          	sw	a0,44(a5) # 100002c <current_i2c_dev>
    10a6:	8082                	ret

000010a8 <get_i2c_active_dev>:
int get_i2c_active_dev(void)       { return current_i2c_dev; }
    10a8:	010007b7          	lui	a5,0x1000
    10ac:	02c7a503          	lw	a0,44(a5) # 100002c <current_i2c_dev>
    10b0:	8082                	ret

000010b2 <i2c_send_init_cmds>:
}
    10b2:	4501                	li	a0,0
    10b4:	8082                	ret

000010b6 <i2c_reset>:

// Reset line state
void i2c_reset(void)
{
	int i;
	i2c_oe_scl_sda(1, 1, 1);
    10b6:	4605                	li	a2,1
{
    10b8:	1141                	addi	sp,sp,-16
	i2c_oe_scl_sda(1, 1, 1);
    10ba:	8532                	mv	a0,a2
    10bc:	85b2                	mv	a1,a2
{
    10be:	c606                	sw	ra,12(sp)
    10c0:	c422                	sw	s0,8(sp)
	i2c_oe_scl_sda(1, 1, 1);
    10c2:	3d2d                	jal	efc <i2c_oe_scl_sda>
	I2C_DELAY(8);
    10c4:	02800513          	li	a0,40
    10c8:	3359                	jal	e4e <busy_wait_us>
    10ca:	4425                	li	s0,9
	for (i = 0; i < 9; ++i) {
		i2c_oe_scl_sda(1, 0, 1);
    10cc:	4605                	li	a2,1
    10ce:	8532                	mv	a0,a2
    10d0:	4581                	li	a1,0
    10d2:	352d                	jal	efc <i2c_oe_scl_sda>
		I2C_DELAY(2);
    10d4:	4529                	li	a0,10
    10d6:	3ba5                	jal	e4e <busy_wait_us>
		i2c_oe_scl_sda(1, 1, 1);
    10d8:	4605                	li	a2,1
    10da:	8532                	mv	a0,a2
    10dc:	85b2                	mv	a1,a2
    10de:	3d39                	jal	efc <i2c_oe_scl_sda>
		I2C_DELAY(2);
    10e0:	4529                	li	a0,10
	for (i = 0; i < 9; ++i) {
    10e2:	147d                	addi	s0,s0,-1
		I2C_DELAY(2);
    10e4:	33ad                	jal	e4e <busy_wait_us>
	for (i = 0; i < 9; ++i) {
    10e6:	f07d                	bnez	s0,10cc <i2c_reset+0x16>
	}
	i2c_oe_scl_sda(0, 0, 1);
    10e8:	4605                	li	a2,1
    10ea:	4581                	li	a1,0
    10ec:	4501                	li	a0,0
    10ee:	3539                	jal	efc <i2c_oe_scl_sda>
	I2C_DELAY(1);
    10f0:	4515                	li	a0,5
    10f2:	3bb1                	jal	e4e <busy_wait_us>
	i2c_stop();
    10f4:	3d2d                	jal	f2e <i2c_stop>
	i2c_oe_scl_sda(0, 1, 1);
    10f6:	4605                	li	a2,1
    10f8:	4501                	li	a0,0
    10fa:	85b2                	mv	a1,a2
    10fc:	3501                	jal	efc <i2c_oe_scl_sda>
	I2C_DELAY(8);
}
    10fe:	4422                	lw	s0,8(sp)
    1100:	40b2                	lw	ra,12(sp)
	I2C_DELAY(8);
    1102:	02800513          	li	a0,40
}
    1106:	0141                	addi	sp,sp,16
	I2C_DELAY(8);
    1108:	b399                	j	e4e <busy_wait_us>

0000110a <i2c_read>:
 *   START WR(slaveaddr) WR(addr) STOP START WR(slaveaddr) RD(data) RD(data) ... STOP
 * Some chips require that after transmiting the address, there will be no STOP in between:
 *   START WR(slaveaddr) WR(addr) START WR(slaveaddr) RD(data) RD(data) ... STOP
 */
bool i2c_read(unsigned char slave_addr, unsigned int addr, unsigned char *data, unsigned int len, bool send_stop, unsigned int addr_size)
{
    110a:	1101                	addi	sp,sp,-32
    110c:	cc22                	sw	s0,24(sp)
    110e:	ce06                	sw	ra,28(sp)
	int i, j;

	if ((addr_size<1) || (addr_size>4)) {
    1110:	fff78413          	addi	s0,a5,-1
{
    1114:	ca26                	sw	s1,20(sp)
    1116:	c84a                	sw	s2,16(sp)
    1118:	c64e                	sw	s3,12(sp)
    111a:	c452                	sw	s4,8(sp)
    111c:	c256                	sw	s5,4(sp)
    111e:	c05a                	sw	s6,0(sp)
	if ((addr_size<1) || (addr_size>4)) {
    1120:	478d                	li	a5,3
    1122:	0287e063          	bltu	a5,s0,1142 <i2c_read+0x38>
    1126:	84aa                	mv	s1,a0
		return false;
	}

	i2c_start();

	if(!i2c_transmit_byte(I2C_ADDR_WR(slave_addr))) {
    1128:	0486                	slli	s1,s1,0x1
    112a:	8aae                	mv	s5,a1
    112c:	89b2                	mv	s3,a2
    112e:	8936                	mv	s2,a3
    1130:	8a3a                	mv	s4,a4
    1132:	0ff4f493          	zext.b	s1,s1
	i2c_start();
    1136:	3535                	jal	f62 <i2c_start>
	if(!i2c_transmit_byte(I2C_ADDR_WR(slave_addr))) {
    1138:	8526                	mv	a0,s1
    113a:	3df1                	jal	1016 <i2c_transmit_byte>
		i2c_stop();
		return false;
	}
	for (j=addr_size-1;j>=0;j--) {
    113c:	5b7d                	li	s6,-1
	if(!i2c_transmit_byte(I2C_ADDR_WR(slave_addr))) {
    113e:	ed11                	bnez	a0,115a <i2c_read+0x50>
		i2c_stop();
    1140:	33fd                	jal	f2e <i2c_stop>
		return false;
    1142:	4401                	li	s0,0
	}

	i2c_stop();

	return true;
}
    1144:	40f2                	lw	ra,28(sp)
    1146:	8522                	mv	a0,s0
    1148:	4462                	lw	s0,24(sp)
    114a:	44d2                	lw	s1,20(sp)
    114c:	4942                	lw	s2,16(sp)
    114e:	49b2                	lw	s3,12(sp)
    1150:	4a22                	lw	s4,8(sp)
    1152:	4a92                	lw	s5,4(sp)
    1154:	4b02                	lw	s6,0(sp)
    1156:	6105                	addi	sp,sp,32
    1158:	8082                	ret
		if(!i2c_transmit_byte((unsigned char)(0xff & (addr >> (8*j))))) {
    115a:	00341513          	slli	a0,s0,0x3
    115e:	00aad533          	srl	a0,s5,a0
    1162:	0ff57513          	zext.b	a0,a0
    1166:	3d45                	jal	1016 <i2c_transmit_byte>
    1168:	dd61                	beqz	a0,1140 <i2c_read+0x36>
	for (j=addr_size-1;j>=0;j--) {
    116a:	147d                	addi	s0,s0,-1
    116c:	ff6417e3          	bne	s0,s6,115a <i2c_read+0x50>
	if (send_stop) {
    1170:	000a0363          	beqz	s4,1176 <i2c_read+0x6c>
		i2c_stop();
    1174:	3b6d                	jal	f2e <i2c_stop>
	i2c_start();
    1176:	33f5                	jal	f62 <i2c_start>
	if(!i2c_transmit_byte(I2C_ADDR_RD(slave_addr))) {
    1178:	0014e513          	ori	a0,s1,1
    117c:	3d69                	jal	1016 <i2c_transmit_byte>
    117e:	842a                	mv	s0,a0
    1180:	d161                	beqz	a0,1140 <i2c_read+0x36>
	for (i = 0; i < len; ++i) {
    1182:	4481                	li	s1,0
		data[i] = i2c_receive_byte(i != len - 1);
    1184:	fff90a13          	addi	s4,s2,-1
	for (i = 0; i < len; ++i) {
    1188:	00991463          	bne	s2,s1,1190 <i2c_read+0x86>
	i2c_stop();
    118c:	334d                	jal	f2e <i2c_stop>
	return true;
    118e:	bf5d                	j	1144 <i2c_read+0x3a>
		data[i] = i2c_receive_byte(i != len - 1);
    1190:	409a0533          	sub	a0,s4,s1
    1194:	00a03533          	snez	a0,a0
    1198:	3d75                	jal	1054 <i2c_receive_byte>
    119a:	009987b3          	add	a5,s3,s1
    119e:	00a78023          	sb	a0,0(a5)
	for (i = 0; i < len; ++i) {
    11a2:	0485                	addi	s1,s1,1
    11a4:	b7d5                	j	1188 <i2c_read+0x7e>

000011a6 <i2c_write>:
 *
 * First writes the memory starting address, then writes the data:
 *   START WR(slaveaddr) WR(addr) WR(data) WR(data) ... STOP
 */
bool i2c_write(unsigned char slave_addr, unsigned int addr, const unsigned char *data, unsigned int len, unsigned int addr_size)
{
    11a6:	1101                	addi	sp,sp,-32
    11a8:	cc22                	sw	s0,24(sp)
    11aa:	ce06                	sw	ra,28(sp)
    11ac:	ca26                	sw	s1,20(sp)
    11ae:	c84a                	sw	s2,16(sp)
    11b0:	c64e                	sw	s3,12(sp)
    11b2:	c452                	sw	s4,8(sp)
    11b4:	c256                	sw	s5,4(sp)
	int i, j;

	if ((addr_size<1) || (addr_size>4)) {
    11b6:	fff70413          	addi	s0,a4,-1
    11ba:	478d                	li	a5,3
    11bc:	0087ef63          	bltu	a5,s0,11da <i2c_write+0x34>
    11c0:	892a                	mv	s2,a0
    11c2:	8a2e                	mv	s4,a1
    11c4:	84b2                	mv	s1,a2
    11c6:	89b6                	mv	s3,a3
		return false;
	}

	i2c_start();
    11c8:	3b69                	jal	f62 <i2c_start>

	if(!i2c_transmit_byte(I2C_ADDR_WR(slave_addr))) {
    11ca:	00191513          	slli	a0,s2,0x1
    11ce:	0fe57513          	andi	a0,a0,254
    11d2:	3591                	jal	1016 <i2c_transmit_byte>
		i2c_stop();
		return false;
	}
	for (j=addr_size-1;j>=0;j--) {
    11d4:	5afd                	li	s5,-1
	if(!i2c_transmit_byte(I2C_ADDR_WR(slave_addr))) {
    11d6:	ed09                	bnez	a0,11f0 <i2c_write+0x4a>
		i2c_stop();
    11d8:	3b99                	jal	f2e <i2c_stop>
		return false;
    11da:	4901                	li	s2,0
	}

	i2c_stop();

	return true;
}
    11dc:	40f2                	lw	ra,28(sp)
    11de:	4462                	lw	s0,24(sp)
    11e0:	44d2                	lw	s1,20(sp)
    11e2:	49b2                	lw	s3,12(sp)
    11e4:	4a22                	lw	s4,8(sp)
    11e6:	4a92                	lw	s5,4(sp)
    11e8:	854a                	mv	a0,s2
    11ea:	4942                	lw	s2,16(sp)
    11ec:	6105                	addi	sp,sp,32
    11ee:	8082                	ret
		if(!i2c_transmit_byte((unsigned char)(0xff & (addr >> (8*j))))) {
    11f0:	00341513          	slli	a0,s0,0x3
    11f4:	00aa5533          	srl	a0,s4,a0
    11f8:	0ff57513          	zext.b	a0,a0
    11fc:	3d29                	jal	1016 <i2c_transmit_byte>
    11fe:	892a                	mv	s2,a0
    1200:	dd61                	beqz	a0,11d8 <i2c_write+0x32>
	for (j=addr_size-1;j>=0;j--) {
    1202:	147d                	addi	s0,s0,-1
    1204:	ff5416e3          	bne	s0,s5,11f0 <i2c_write+0x4a>
    1208:	99a6                	add	s3,s3,s1
	for (i = 0; i < len; ++i) {
    120a:	01349463          	bne	s1,s3,1212 <i2c_write+0x6c>
	i2c_stop();
    120e:	3305                	jal	f2e <i2c_stop>
	return true;
    1210:	b7f1                	j	11dc <i2c_write+0x36>
		if(!i2c_transmit_byte(data[i])) {
    1212:	0004c503          	lbu	a0,0(s1)
    1216:	0485                	addi	s1,s1,1
    1218:	3bfd                	jal	1016 <i2c_transmit_byte>
    121a:	f965                	bnez	a0,120a <i2c_write+0x64>
    121c:	bf75                	j	11d8 <i2c_write+0x32>

0000121e <i2c_poll>:

/*
 * Poll I2C slave at given address, return true if it sends an ACK back
 */
bool i2c_poll(unsigned char slave_addr)
{
    121e:	1101                	addi	sp,sp,-32
    1220:	cc22                	sw	s0,24(sp)
    1222:	842a                	mv	s0,a0
    bool result;

    i2c_start();
    result  = i2c_transmit_byte(I2C_ADDR_WR(slave_addr));
    1224:	0406                	slli	s0,s0,0x1
{
    1226:	ce06                	sw	ra,28(sp)
    result  = i2c_transmit_byte(I2C_ADDR_WR(slave_addr));
    1228:	0ff47413          	zext.b	s0,s0
    i2c_start();
    122c:	3b1d                	jal	f62 <i2c_start>
    result  = i2c_transmit_byte(I2C_ADDR_WR(slave_addr));
    122e:	8522                	mv	a0,s0
    1230:	33dd                	jal	1016 <i2c_transmit_byte>
    if (!result) {
    1232:	e901                	bnez	a0,1242 <i2c_poll+0x24>
        i2c_start();
    1234:	333d                	jal	f62 <i2c_start>
        result |= i2c_transmit_byte(I2C_ADDR_RD(slave_addr));
    1236:	00146513          	ori	a0,s0,1
    123a:	3bf1                	jal	1016 <i2c_transmit_byte>
        if (result)
    123c:	c501                	beqz	a0,1244 <i2c_poll+0x26>
           i2c_receive_byte(false);
    123e:	4501                	li	a0,0
    1240:	3d11                	jal	1054 <i2c_receive_byte>
    result  = i2c_transmit_byte(I2C_ADDR_WR(slave_addr));
    1242:	4505                	li	a0,1
    1244:	c62a                	sw	a0,12(sp)
    }
    i2c_stop();
    1246:	31e5                	jal	f2e <i2c_stop>

    return result;
}
    1248:	40f2                	lw	ra,28(sp)
    124a:	4462                	lw	s0,24(sp)
    124c:	4532                	lw	a0,12(sp)
    124e:	6105                	addi	sp,sp,32
    1250:	8082                	ret

00001252 <isr>:
#else

#if defined(__microwatt__)
void isr(uint64_t vec) {};
#else
void isr(void) {};
    1252:	8082                	ret
