
firmware.elf:     file format elf32-littleriscv

Sections:
Idx Name          Size      VMA       LMA       File off  Algn
  0 everything    000004d2  00000000  00000000  00000054  2**2
                  CONTENTS, ALLOC, LOAD, CODE

Disassembly of section everything:

00000000 <calculator>:
   0:	00002137          	lui	sp,0x2
   4:	00002137          	lui	sp,0x2
   8:	04800513          	li	a0,72
   c:	42c000ef          	jal	438 <putstring>
  10:	078000ef          	jal	88 <get_number>
  14:	1d4000ef          	jal	1e8 <bcd2bin>
  18:	00050333          	add	t1,a0,zero
  1c:	04800513          	li	a0,72
  20:	418000ef          	jal	438 <putstring>
  24:	064000ef          	jal	88 <get_number>
  28:	1c0000ef          	jal	1e8 <bcd2bin>
  2c:	00050e33          	add	t3,a0,zero
  30:	00030533          	add	a0,t1,zero
  34:	000e05b3          	add	a1,t3,zero
  38:	450000ef          	jal	488 <test>
  3c:	0040006f          	j	40 <print_result>

00000040 <print_result>:
  40:	0e4000ef          	jal	124 <bin2bcd>
  44:	fbdff06f          	j	0 <calculator>

00000048 <number>:
  48:	0d0a                	.insn	2, 0x0d0a
  4a:	754e                	.insn	2, 0x754e
  4c:	626d                	.insn	2, 0x626d
  4e:	7265                	.insn	2, 0x7265
  50:	203a                	.insn	2, 0x203a
	...

00000053 <operator>:
  53:	0d0a                	.insn	2, 0x0d0a
  55:	7265704f          	.insn	4, 0x7265704f
  59:	7461                	.insn	2, 0x7461
  5b:	0020726f          	jal	tp,705d <test+0x6bd5>

0000005f <result>:
  5f:	0d0a                	.insn	2, 0x0d0a
  61:	6552                	.insn	2, 0x6552
  63:	746c7573          	.insn	4, 0x746c7573
  67:	3d20                	.insn	2, 0x3d20
  69:	0020                	.insn	2, 0x0020
  6b:	1941                	.insn	2, 0x1941
  6d:	0000                	.insn	2, 0x0000
  6f:	7200                	.insn	2, 0x7200
  71:	7369                	.insn	2, 0x7369
  73:	01007663          	bgeu	zero,a6,7f <result+0x20>
  77:	0000000f          	fence	unknown,unknown
  7b:	7205                	.insn	2, 0x7205
  7d:	3376                	.insn	2, 0x3376
  7f:	6932                	.insn	2, 0x6932
  81:	7032                	.insn	2, 0x7032
  83:	0031                	.insn	2, 0x0031
  85:	0000                	.insn	2, 0x0000
	...

00000088 <get_number>:
  88:	ff010113          	addi	sp,sp,-16 # 1ff0 <test+0x1b68>
  8c:	00112623          	sw	ra,12(sp)
  90:	00812423          	sw	s0,8(sp)
  94:	00512223          	sw	t0,4(sp)
  98:	00612023          	sw	t1,0(sp)
  9c:	00000413          	li	s0,0

000000a0 <get_number_loop>:
  a0:	340000ef          	jal	3e0 <getchar>
  a4:	00050fb3          	add	t6,a0,zero
  a8:	2d0000ef          	jal	378 <putchar>
  ac:	000f8533          	add	a0,t6,zero
  b0:	00a00293          	li	t0,10
  b4:	02550c63          	beq	a0,t0,ec <get_number_done>
  b8:	00d00293          	li	t0,13
  bc:	02550863          	beq	a0,t0,ec <get_number_done>
  c0:	02000293          	li	t0,32
  c4:	02550463          	beq	a0,t0,ec <get_number_done>
  c8:	03000293          	li	t0,48
  cc:	fc554ae3          	blt	a0,t0,a0 <get_number_loop>
  d0:	03900293          	li	t0,57
  d4:	fca2c6e3          	blt	t0,a0,a0 <get_number_loop>
  d8:	00f57513          	andi	a0,a0,15
  dc:	00040333          	add	t1,s0,zero
  e0:	00441413          	slli	s0,s0,0x4
  e4:	00a46433          	or	s0,s0,a0
  e8:	fb9ff06f          	j	a0 <get_number_loop>

000000ec <get_number_done>:
  ec:	00040533          	add	a0,s0,zero
  f0:	00012303          	lw	t1,0(sp)
  f4:	00412283          	lw	t0,4(sp)
  f8:	00812403          	lw	s0,8(sp)
  fc:	00c12083          	lw	ra,12(sp)
 100:	01010113          	addi	sp,sp,16
 104:	00008067          	ret
 108:	1941                	.insn	2, 0x1941
 10a:	0000                	.insn	2, 0x0000
 10c:	7200                	.insn	2, 0x7200
 10e:	7369                	.insn	2, 0x7369
 110:	01007663          	bgeu	zero,a6,11c <get_number_done+0x30>
 114:	0000000f          	fence	unknown,unknown
 118:	7205                	.insn	2, 0x7205
 11a:	3376                	.insn	2, 0x3376
 11c:	6932                	.insn	2, 0x6932
 11e:	7032                	.insn	2, 0x7032
 120:	0031                	.insn	2, 0x0031
	...

00000124 <bin2bcd>:
 124:	ff010113          	addi	sp,sp,-16
 128:	00112623          	sw	ra,12(sp)
 12c:	00512423          	sw	t0,8(sp)
 130:	00612223          	sw	t1,4(sp)
 134:	01c12023          	sw	t3,0(sp)
 138:	004401b7          	lui	gp,0x440
 13c:	00a1a223          	sw	a0,4(gp) # 440004 <BIN2BCD_BASE+0x4>
 140:	00100513          	li	a0,1
 144:	00a1a623          	sw	a0,12(gp)
 148:	0001a623          	sw	zero,12(gp)
 14c:	00100293          	li	t0,1
 150:	0141a303          	lw	t1,20(gp)
 154:	00537333          	and	t1,t1,t0
 158:	fe030ae3          	beqz	t1,14c <bin2bcd+0x28>
 15c:	0101a503          	lw	a0,16(gp)
 160:	000505b3          	add	a1,a0,zero
 164:	00a00513          	li	a0,10
 168:	210000ef          	jal	378 <putchar>
 16c:	00d00513          	li	a0,13
 170:	208000ef          	jal	378 <putchar>
 174:	00058533          	add	a0,a1,zero
 178:	01000e13          	li	t3,16
 17c:	000582b3          	add	t0,a1,zero
 180:	0102d293          	srli	t0,t0,0x10
 184:	00f2f293          	andi	t0,t0,15
 188:	03028293          	addi	t0,t0,48
 18c:	00028533          	add	a0,t0,zero
 190:	1e8000ef          	jal	378 <putchar>
 194:	00459593          	slli	a1,a1,0x4
 198:	001e5e13          	srli	t3,t3,0x1
 19c:	000e0463          	beqz	t3,1a4 <.PC0>
 1a0:	fddff06f          	j	17c <bin2bcd+0x58>

000001a4 <.PC0>:
 1a4:	00a00513          	li	a0,10
 1a8:	1d0000ef          	jal	378 <putchar>
 1ac:	00d00513          	li	a0,13
 1b0:	1c8000ef          	jal	378 <putchar>
 1b4:	00012e03          	lw	t3,0(sp)
 1b8:	00412303          	lw	t1,4(sp)
 1bc:	00812283          	lw	t0,8(sp)
 1c0:	00c12083          	lw	ra,12(sp)
 1c4:	01010113          	addi	sp,sp,16
 1c8:	00008067          	ret
 1cc:	1941                	.insn	2, 0x1941
 1ce:	0000                	.insn	2, 0x0000
 1d0:	7200                	.insn	2, 0x7200
 1d2:	7369                	.insn	2, 0x7369
 1d4:	01007663          	bgeu	zero,a6,1e0 <.PC0+0x3c>
 1d8:	0000000f          	fence	unknown,unknown
 1dc:	7205                	.insn	2, 0x7205
 1de:	3376                	.insn	2, 0x3376
 1e0:	6932                	.insn	2, 0x6932
 1e2:	7032                	.insn	2, 0x7032
 1e4:	0031                	.insn	2, 0x0031
	...

000001e8 <bcd2bin>:
 1e8:	ff410113          	addi	sp,sp,-12
 1ec:	00112423          	sw	ra,8(sp)
 1f0:	00512223          	sw	t0,4(sp)
 1f4:	00612023          	sw	t1,0(sp)
 1f8:	004601b7          	lui	gp,0x460
 1fc:	00a1a223          	sw	a0,4(gp) # 460004 <BCD2BIN_BASE+0x4>
 200:	00100513          	li	a0,1
 204:	00a1a623          	sw	a0,12(gp)
 208:	0001a623          	sw	zero,12(gp)
 20c:	00100293          	li	t0,1
 210:	0141a303          	lw	t1,20(gp)
 214:	00537333          	and	t1,t1,t0
 218:	fe030ae3          	beqz	t1,20c <bcd2bin+0x24>
 21c:	0101a503          	lw	a0,16(gp)
 220:	00012303          	lw	t1,0(sp)
 224:	00412283          	lw	t0,4(sp)
 228:	00812083          	lw	ra,8(sp)
 22c:	00c10113          	addi	sp,sp,12
 230:	00008067          	ret
 234:	1941                	.insn	2, 0x1941
 236:	0000                	.insn	2, 0x0000
 238:	7200                	.insn	2, 0x7200
 23a:	7369                	.insn	2, 0x7369
 23c:	01007663          	bgeu	zero,a6,248 <bcd2bin+0x60>
 240:	0000000f          	fence	unknown,unknown
 244:	7205                	.insn	2, 0x7205
 246:	3376                	.insn	2, 0x3376
 248:	6932                	.insn	2, 0x6932
 24a:	7032                	.insn	2, 0x7032
 24c:	0031                	.insn	2, 0x0031
	...

00000250 <bin_to_bcd>:
 250:	fe410113          	addi	sp,sp,-28
 254:	00512023          	sw	t0,0(sp)
 258:	00612223          	sw	t1,4(sp)
 25c:	00712423          	sw	t2,8(sp)
 260:	01c12623          	sw	t3,12(sp)
 264:	01e12823          	sw	t5,16(sp)
 268:	01f12a23          	sw	t6,20(sp)
 26c:	00112c23          	sw	ra,24(sp)
 270:	00000593          	li	a1,0
 274:	00100f93          	li	t6,1
 278:	00ff9f93          	slli	t6,t6,0xf
 27c:	00159593          	slli	a1,a1,0x1
 280:	00300313          	li	t1,3
 284:	00500393          	li	t2,5
 288:	00f00e13          	li	t3,15
 28c:	00100293          	li	t0,1
 290:	00f29293          	slli	t0,t0,0xf
 294:	00a2f2b3          	and	t0,t0,a0
 298:	00028463          	beqz	t0,2a0 <bin_to_bcd+0x50>
 29c:	00158593          	addi	a1,a1,1
 2a0:	00151513          	slli	a0,a0,0x1
 2a4:	001fdf93          	srli	t6,t6,0x1
 2a8:	040f8263          	beqz	t6,2ec <bin_to_bcd+0x9c>
 2ac:	01c5f2b3          	and	t0,a1,t3
 2b0:	0072d463          	bge	t0,t2,2b8 <bin_to_bcd+0x68>
 2b4:	0240006f          	j	2d8 <bin_to_bcd+0x88>
 2b8:	006282b3          	add	t0,t0,t1
 2bc:	01c2f2b3          	and	t0,t0,t3
 2c0:	00000f13          	li	t5,0
 2c4:	ffff0f13          	addi	t5,t5,-1
 2c8:	01ee4f33          	xor	t5,t3,t5
 2cc:	01e2e2b3          	or	t0,t0,t5
 2d0:	01c5e5b3          	or	a1,a1,t3
 2d4:	0055f5b3          	and	a1,a1,t0
 2d8:	00431313          	slli	t1,t1,0x4
 2dc:	00439393          	slli	t2,t2,0x4
 2e0:	004e1e13          	slli	t3,t3,0x4
 2e4:	f80e0ce3          	beqz	t3,27c <bin_to_bcd+0x2c>
 2e8:	fc5ff06f          	j	2ac <bin_to_bcd+0x5c>
 2ec:	00a00513          	li	a0,10
 2f0:	088000ef          	jal	378 <putchar>
 2f4:	00d00513          	li	a0,13
 2f8:	080000ef          	jal	378 <putchar>
 2fc:	00800e13          	li	t3,8
 300:	00058293          	mv	t0,a1
 304:	00c2d293          	srli	t0,t0,0xc
 308:	00f2f293          	andi	t0,t0,15
 30c:	03028293          	addi	t0,t0,48
 310:	00028513          	mv	a0,t0
 314:	064000ef          	jal	378 <putchar>
 318:	00459593          	slli	a1,a1,0x4
 31c:	001e5e13          	srli	t3,t3,0x1
 320:	000e0463          	beqz	t3,328 <.PC0>
 324:	fddff06f          	j	300 <bin_to_bcd+0xb0>

00000328 <.PC0>:
 328:	00a00513          	li	a0,10
 32c:	04c000ef          	jal	378 <putchar>
 330:	00d00513          	li	a0,13
 334:	044000ef          	jal	378 <putchar>
 338:	00012283          	lw	t0,0(sp)
 33c:	00412303          	lw	t1,4(sp)
 340:	00812383          	lw	t2,8(sp)
 344:	00c12e03          	lw	t3,12(sp)
 348:	01012f03          	lw	t5,16(sp)
 34c:	01412f83          	lw	t6,20(sp)
 350:	01812083          	lw	ra,24(sp)
 354:	01c10113          	addi	sp,sp,28
 358:	00008067          	ret
 35c:	1941                	.insn	2, 0x1941
 35e:	0000                	.insn	2, 0x0000
 360:	7200                	.insn	2, 0x7200
 362:	7369                	.insn	2, 0x7369
 364:	01007663          	bgeu	zero,a6,370 <.PC0+0x48>
 368:	0000000f          	fence	unknown,unknown
 36c:	7205                	.insn	2, 0x7205
 36e:	3376                	.insn	2, 0x3376
 370:	6932                	.insn	2, 0x6932
 372:	7032                	.insn	2, 0x7032
 374:	0031                	.insn	2, 0x0031
	...

00000378 <putchar>:
 378:	ff410113          	addi	sp,sp,-12
 37c:	00512023          	sw	t0,0(sp)
 380:	00612223          	sw	t1,4(sp)
 384:	00112423          	sw	ra,8(sp)
 388:	004001b7          	lui	gp,0x400
 38c:	00a1a423          	sw	a0,8(gp) # 400008 <UART_BASE+0x8>
 390:	00100293          	li	t0,1
 394:	0051a823          	sw	t0,16(gp)
 398:	00000293          	li	t0,0
 39c:	0051a823          	sw	t0,16(gp)
 3a0:	20000293          	li	t0,512
 3a4:	0101a303          	lw	t1,16(gp)
 3a8:	00537333          	and	t1,t1,t0
 3ac:	fe031ce3          	bnez	t1,3a4 <putchar+0x2c>
 3b0:	00812083          	lw	ra,8(sp)
 3b4:	00412303          	lw	t1,4(sp)
 3b8:	00012283          	lw	t0,0(sp)
 3bc:	00c10113          	addi	sp,sp,12
 3c0:	00008067          	ret
 3c4:	1941                	.insn	2, 0x1941
 3c6:	0000                	.insn	2, 0x0000
 3c8:	7200                	.insn	2, 0x7200
 3ca:	7369                	.insn	2, 0x7369
 3cc:	01007663          	bgeu	zero,a6,3d8 <putchar+0x60>
 3d0:	0000000f          	fence	unknown,unknown
 3d4:	7205                	.insn	2, 0x7205
 3d6:	3376                	.insn	2, 0x3376
 3d8:	6932                	.insn	2, 0x6932
 3da:	7032                	.insn	2, 0x7032
 3dc:	0031                	.insn	2, 0x0031
	...

000003e0 <getchar>:
 3e0:	ff810113          	addi	sp,sp,-8
 3e4:	00512023          	sw	t0,0(sp)
 3e8:	00112223          	sw	ra,4(sp)
 3ec:	004001b7          	lui	gp,0x400
 3f0:	0101a503          	lw	a0,16(gp) # 400010 <UART_BASE+0x10>
 3f4:	10057293          	andi	t0,a0,256
 3f8:	fe028ce3          	beqz	t0,3f0 <getchar+0x10>
 3fc:	00200293          	li	t0,2
 400:	0051a823          	sw	t0,16(gp)
 404:	0081a503          	lw	a0,8(gp)
 408:	0ff57513          	zext.b	a0,a0
 40c:	00412083          	lw	ra,4(sp)
 410:	00012283          	lw	t0,0(sp)
 414:	00810113          	addi	sp,sp,8
 418:	00008067          	ret
 41c:	1941                	.insn	2, 0x1941
 41e:	0000                	.insn	2, 0x0000
 420:	7200                	.insn	2, 0x7200
 422:	7369                	.insn	2, 0x7369
 424:	01007663          	bgeu	zero,a6,430 <getchar+0x50>
 428:	0000000f          	fence	unknown,unknown
 42c:	7205                	.insn	2, 0x7205
 42e:	3376                	.insn	2, 0x3376
 430:	6932                	.insn	2, 0x6932
 432:	7032                	.insn	2, 0x7032
 434:	0031                	.insn	2, 0x0031
	...

00000438 <putstring>:
 438:	ff810113          	addi	sp,sp,-8
 43c:	00112023          	sw	ra,0(sp)
 440:	00712223          	sw	t2,4(sp)
 444:	000503b3          	add	t2,a0,zero
 448:	0003c503          	lbu	a0,0(t2)
 44c:	00050863          	beqz	a0,45c <putstring+0x24>
 450:	f29ff0ef          	jal	378 <putchar>
 454:	00138393          	addi	t2,t2,1
 458:	ff1ff06f          	j	448 <putstring+0x10>
 45c:	00412383          	lw	t2,4(sp)
 460:	00012083          	lw	ra,0(sp)
 464:	00810113          	addi	sp,sp,8
 468:	00008067          	ret
 46c:	1941                	.insn	2, 0x1941
 46e:	0000                	.insn	2, 0x0000
 470:	7200                	.insn	2, 0x7200
 472:	7369                	.insn	2, 0x7369
 474:	01007663          	bgeu	zero,a6,480 <putstring+0x48>
 478:	0000000f          	fence	unknown,unknown
 47c:	7205                	.insn	2, 0x7205
 47e:	3376                	.insn	2, 0x3376
 480:	6932                	.insn	2, 0x6932
 482:	7032                	.insn	2, 0x7032
 484:	0031                	.insn	2, 0x0031
	...

00000488 <test>:
 488:	004201b7          	lui	gp,0x420
 48c:	00a1a223          	sw	a0,4(gp) # 420004 <TEST_BASE+0x4>
 490:	00b1a423          	sw	a1,8(gp)
 494:	00100513          	li	a0,1
 498:	00a1a623          	sw	a0,12(gp)
 49c:	0001a623          	sw	zero,12(gp)
 4a0:	00100293          	li	t0,1
 4a4:	0141a303          	lw	t1,20(gp)
 4a8:	00537333          	and	t1,t1,t0
 4ac:	fe030ae3          	beqz	t1,4a0 <test+0x18>
 4b0:	0101a503          	lw	a0,16(gp)
 4b4:	00008067          	ret
 4b8:	1941                	.insn	2, 0x1941
 4ba:	0000                	.insn	2, 0x0000
 4bc:	7200                	.insn	2, 0x7200
 4be:	7369                	.insn	2, 0x7369
 4c0:	01007663          	bgeu	zero,a6,4cc <test+0x44>
 4c4:	0000000f          	fence	unknown,unknown
 4c8:	7205                	.insn	2, 0x7205
 4ca:	3376                	.insn	2, 0x3376
 4cc:	6932                	.insn	2, 0x6932
 4ce:	7032                	.insn	2, 0x7032
 4d0:	0031                	.insn	2, 0x0031
