
firmware.elf:     file format elf32-littleriscv

Sections:
Idx Name          Size      VMA       LMA       File off  Algn
  0 everything    0000065e  00000000  00000000  00000054  2**2
                  CONTENTS, ALLOC, LOAD, CODE

Disassembly of section everything:

00000000 <calculator>:
   0:	00001137          	lui	sp,0x1

00000004 <loopM>:
   4:	09000513          	li	a0,144
   8:	05c000ef          	jal	ra,64 <putstring>
   c:	0d4000ef          	jal	ra,e0 <get_number>
  10:	248000ef          	jal	ra,258 <bcd2bin>
  14:	3d4000ef          	jal	ra,3e8 <sqrt>
  18:	17c000ef          	jal	ra,194 <bin2bcd>
  1c:	0c4000ef          	jal	ra,e0 <get_number>
  20:	238000ef          	jal	ra,258 <bcd2bin>
  24:	3c4000ef          	jal	ra,3e8 <sqrt>
  28:	16c000ef          	jal	ra,194 <bin2bcd>
  2c:	0b4000ef          	jal	ra,e0 <get_number>
  30:	228000ef          	jal	ra,258 <bcd2bin>
  34:	3b4000ef          	jal	ra,3e8 <sqrt>
  38:	15c000ef          	jal	ra,194 <bin2bcd>
  3c:	fc9ff06f          	j	4 <loopM>
  40:	00050293          	mv	t0,a0
  44:	09c000ef          	jal	ra,e0 <get_number>
  48:	210000ef          	jal	ra,258 <bcd2bin>
  4c:	00050313          	mv	t1,a0
  50:	00028513          	mv	a0,t0
  54:	00030593          	mv	a1,t1
  58:	420000ef          	jal	ra,478 <mult_hw>
  5c:	138000ef          	jal	ra,194 <bin2bcd>
  60:	fa5ff06f          	j	4 <loopM>

00000064 <putstring>:
  64:	ffc10113          	addi	sp,sp,-4 # ffc <getchar+0x9ec>
  68:	00112023          	sw	ra,0(sp)
  6c:	00050393          	mv	t2,a0
  70:	0003c503          	lbu	a0,0(t2)
  74:	00050863          	beqz	a0,84 <putstring+0x20>
  78:	538000ef          	jal	ra,5b0 <putchar>
  7c:	00138393          	addi	t2,t2,1
  80:	ff1ff06f          	j	70 <putstring+0xc>
  84:	00012083          	lw	ra,0(sp)
  88:	00410113          	addi	sp,sp,4
  8c:	00008067          	ret

00000090 <command>:
  90:	0d0a                	slli	s10,s10,0x2
  92:	2d20                	fld	fs0,88(a0)
  94:	4520                	lw	s0,72(a0)
  96:	746e                	flw	fs0,248(sp)
  98:	7265                	lui	tp,0xffff9
  9a:	6320                	flw	fs0,64(a4)
  9c:	6c61                	lui	s8,0x18
  9e:	2d203a63          	.4byte	0x2d203a63
  a2:	0020                	addi	s0,sp,8

000000a4 <operator>:
  a4:	0d0a                	slli	s10,s10,0x2
  a6:	6e45                	lui	t3,0x11
  a8:	6574                	flw	fa3,76(a0)
  aa:	2072                	fld	ft0,280(sp)
  ac:	7265706f          	j	577d2 <getchar+0x571c2>
  b0:	7461                	lui	s0,0xffff8
  b2:	0a20726f          	jal	tp,7154 <getchar+0x6b44>
  b6:	000d                	c.nop	3

000000b8 <result>:
  b8:	0d0a                	slli	s10,s10,0x2
  ba:	6552                	flw	fa0,20(sp)
  bc:	746c7573          	csrrci	a0,0x746,24
  c0:	3d20                	fld	fs0,120(a0)
  c2:	0020                	addi	s0,sp,8
  c4:	1941                	addi	s2,s2,-16
  c6:	0000                	unimp
  c8:	7200                	flw	fs0,32(a2)
  ca:	7369                	lui	t1,0xffffa
  cc:	01007663          	bgeu	zero,a6,d8 <result+0x20>
  d0:	0000000f          	fence	unknown,unknown
  d4:	7205                	lui	tp,0xfffe1
  d6:	3376                	fld	ft6,376(sp)
  d8:	6932                	flw	fs2,12(sp)
  da:	7032                	flw	ft0,44(sp)
  dc:	0030                	addi	a2,sp,8
	...

000000e0 <get_number>:
  e0:	fe810113          	addi	sp,sp,-24
  e4:	00112a23          	sw	ra,20(sp)
  e8:	00812823          	sw	s0,16(sp)
  ec:	00912623          	sw	s1,12(sp)
  f0:	01212423          	sw	s2,8(sp)
  f4:	00512223          	sw	t0,4(sp)
  f8:	00612023          	sw	t1,0(sp)
  fc:	00000413          	li	s0,0
 100:	00000493          	li	s1,0
 104:	00100913          	li	s2,1

00000108 <get_number_loop>:
 108:	508000ef          	jal	ra,610 <getchar>
 10c:	00050f93          	mv	t6,a0
 110:	4a0000ef          	jal	ra,5b0 <putchar>
 114:	000f8513          	mv	a0,t6
 118:	00a00293          	li	t0,10
 11c:	02550c63          	beq	a0,t0,154 <get_number_done>
 120:	00d00293          	li	t0,13
 124:	02550863          	beq	a0,t0,154 <get_number_done>
 128:	02000293          	li	t0,32
 12c:	02550463          	beq	a0,t0,154 <get_number_done>
 130:	03000293          	li	t0,48
 134:	fc554ae3          	blt	a0,t0,108 <get_number_loop>
 138:	03900293          	li	t0,57
 13c:	fca2c6e3          	blt	t0,a0,108 <get_number_loop>
 140:	00f57513          	andi	a0,a0,15
 144:	00040313          	mv	t1,s0
 148:	00441413          	slli	s0,s0,0x4
 14c:	00a46433          	or	s0,s0,a0
 150:	fb9ff06f          	j	108 <get_number_loop>

00000154 <get_number_done>:
 154:	00040513          	mv	a0,s0
 158:	00012303          	lw	t1,0(sp)
 15c:	00412283          	lw	t0,4(sp)
 160:	00812903          	lw	s2,8(sp)
 164:	00c12483          	lw	s1,12(sp)
 168:	01012403          	lw	s0,16(sp)
 16c:	01412083          	lw	ra,20(sp)
 170:	01810113          	addi	sp,sp,24
 174:	00008067          	ret
 178:	1941                	addi	s2,s2,-16
 17a:	0000                	unimp
 17c:	7200                	flw	fs0,32(a2)
 17e:	7369                	lui	t1,0xffffa
 180:	01007663          	bgeu	zero,a6,18c <get_number_done+0x38>
 184:	0000000f          	fence	unknown,unknown
 188:	7205                	lui	tp,0xfffe1
 18a:	3376                	fld	ft6,376(sp)
 18c:	6932                	flw	fs2,12(sp)
 18e:	7032                	flw	ft0,44(sp)
 190:	0030                	addi	a2,sp,8
	...

00000194 <bin2bcd>:
 194:	ff010113          	addi	sp,sp,-16
 198:	00112623          	sw	ra,12(sp)
 19c:	00512423          	sw	t0,8(sp)
 1a0:	00612223          	sw	t1,4(sp)
 1a4:	01c12023          	sw	t3,0(sp)
 1a8:	004401b7          	lui	gp,0x440
 1ac:	00a1a223          	sw	a0,4(gp) # 440004 <BIN2BCD_BASE+0x4>
 1b0:	00100513          	li	a0,1
 1b4:	00a1a623          	sw	a0,12(gp)
 1b8:	0001a623          	sw	zero,12(gp)
 1bc:	00100293          	li	t0,1
 1c0:	0141a303          	lw	t1,20(gp)
 1c4:	00537333          	and	t1,t1,t0
 1c8:	fe030ae3          	beqz	t1,1bc <bin2bcd+0x28>
 1cc:	0101a503          	lw	a0,16(gp)
 1d0:	00050593          	mv	a1,a0
 1d4:	00a00513          	li	a0,10
 1d8:	3d8000ef          	jal	ra,5b0 <putchar>
 1dc:	00d00513          	li	a0,13
 1e0:	3d0000ef          	jal	ra,5b0 <putchar>
 1e4:	00058513          	mv	a0,a1
 1e8:	01000e13          	li	t3,16
 1ec:	00058293          	mv	t0,a1
 1f0:	0102d293          	srli	t0,t0,0x10
 1f4:	00f2f293          	andi	t0,t0,15
 1f8:	03028293          	addi	t0,t0,48
 1fc:	00028513          	mv	a0,t0
 200:	3b0000ef          	jal	ra,5b0 <putchar>
 204:	00459593          	slli	a1,a1,0x4
 208:	001e5e13          	srli	t3,t3,0x1
 20c:	000e0463          	beqz	t3,214 <.PC0>
 210:	fddff06f          	j	1ec <bin2bcd+0x58>

00000214 <.PC0>:
 214:	00a00513          	li	a0,10
 218:	398000ef          	jal	ra,5b0 <putchar>
 21c:	00d00513          	li	a0,13
 220:	390000ef          	jal	ra,5b0 <putchar>
 224:	00012e03          	lw	t3,0(sp)
 228:	00412303          	lw	t1,4(sp)
 22c:	00812283          	lw	t0,8(sp)
 230:	00c12083          	lw	ra,12(sp)
 234:	01010113          	addi	sp,sp,16
 238:	00008067          	ret
 23c:	1941                	addi	s2,s2,-16
 23e:	0000                	unimp
 240:	7200                	flw	fs0,32(a2)
 242:	7369                	lui	t1,0xffffa
 244:	01007663          	bgeu	zero,a6,250 <.PC0+0x3c>
 248:	0000000f          	fence	unknown,unknown
 24c:	7205                	lui	tp,0xfffe1
 24e:	3376                	fld	ft6,376(sp)
 250:	6932                	flw	fs2,12(sp)
 252:	7032                	flw	ft0,44(sp)
 254:	0030                	addi	a2,sp,8
	...

00000258 <bcd2bin>:
 258:	ff410113          	addi	sp,sp,-12
 25c:	00112423          	sw	ra,8(sp)
 260:	00512223          	sw	t0,4(sp)
 264:	00612023          	sw	t1,0(sp)
 268:	004601b7          	lui	gp,0x460
 26c:	00a1a223          	sw	a0,4(gp) # 460004 <BCD2BIN_BASE+0x4>
 270:	00100513          	li	a0,1
 274:	00a1a623          	sw	a0,12(gp)
 278:	0001a623          	sw	zero,12(gp)
 27c:	00100293          	li	t0,1
 280:	0141a303          	lw	t1,20(gp)
 284:	00537333          	and	t1,t1,t0
 288:	fe030ae3          	beqz	t1,27c <bcd2bin+0x24>
 28c:	0101a503          	lw	a0,16(gp)
 290:	00012303          	lw	t1,0(sp)
 294:	00412283          	lw	t0,4(sp)
 298:	00812083          	lw	ra,8(sp)
 29c:	00c10113          	addi	sp,sp,12
 2a0:	00008067          	ret
 2a4:	1941                	addi	s2,s2,-16
 2a6:	0000                	unimp
 2a8:	7200                	flw	fs0,32(a2)
 2aa:	7369                	lui	t1,0xffffa
 2ac:	01007663          	bgeu	zero,a6,2b8 <bcd2bin+0x60>
 2b0:	0000000f          	fence	unknown,unknown
 2b4:	7205                	lui	tp,0xfffe1
 2b6:	3376                	fld	ft6,376(sp)
 2b8:	6932                	flw	fs2,12(sp)
 2ba:	7032                	flw	ft0,44(sp)
 2bc:	0030                	addi	a2,sp,8
	...

000002c0 <bin_to_bcd>:
 2c0:	fe410113          	addi	sp,sp,-28
 2c4:	00512023          	sw	t0,0(sp)
 2c8:	00612223          	sw	t1,4(sp)
 2cc:	00712423          	sw	t2,8(sp)
 2d0:	01c12623          	sw	t3,12(sp)
 2d4:	01e12823          	sw	t5,16(sp)
 2d8:	01f12a23          	sw	t6,20(sp)
 2dc:	00112c23          	sw	ra,24(sp)
 2e0:	00000593          	li	a1,0
 2e4:	00100f93          	li	t6,1
 2e8:	00ff9f93          	slli	t6,t6,0xf
 2ec:	00159593          	slli	a1,a1,0x1
 2f0:	00300313          	li	t1,3
 2f4:	00500393          	li	t2,5
 2f8:	00f00e13          	li	t3,15
 2fc:	00100293          	li	t0,1
 300:	00f29293          	slli	t0,t0,0xf
 304:	00a2f2b3          	and	t0,t0,a0
 308:	00028463          	beqz	t0,310 <bin_to_bcd+0x50>
 30c:	00158593          	addi	a1,a1,1
 310:	00151513          	slli	a0,a0,0x1
 314:	001fdf93          	srli	t6,t6,0x1
 318:	040f8263          	beqz	t6,35c <bin_to_bcd+0x9c>
 31c:	01c5f2b3          	and	t0,a1,t3
 320:	0072d463          	bge	t0,t2,328 <bin_to_bcd+0x68>
 324:	0240006f          	j	348 <bin_to_bcd+0x88>
 328:	006282b3          	add	t0,t0,t1
 32c:	01c2f2b3          	and	t0,t0,t3
 330:	00000f13          	li	t5,0
 334:	ffff0f13          	addi	t5,t5,-1
 338:	01ee4f33          	xor	t5,t3,t5
 33c:	01e2e2b3          	or	t0,t0,t5
 340:	01c5e5b3          	or	a1,a1,t3
 344:	0055f5b3          	and	a1,a1,t0
 348:	00431313          	slli	t1,t1,0x4
 34c:	00439393          	slli	t2,t2,0x4
 350:	004e1e13          	slli	t3,t3,0x4
 354:	f80e0ce3          	beqz	t3,2ec <bin_to_bcd+0x2c>
 358:	fc5ff06f          	j	31c <bin_to_bcd+0x5c>
 35c:	00a00513          	li	a0,10
 360:	250000ef          	jal	ra,5b0 <putchar>
 364:	00d00513          	li	a0,13
 368:	248000ef          	jal	ra,5b0 <putchar>
 36c:	00800e13          	li	t3,8
 370:	00058293          	mv	t0,a1
 374:	00c2d293          	srli	t0,t0,0xc
 378:	00f2f293          	andi	t0,t0,15
 37c:	03028293          	addi	t0,t0,48
 380:	00028513          	mv	a0,t0
 384:	22c000ef          	jal	ra,5b0 <putchar>
 388:	00459593          	slli	a1,a1,0x4
 38c:	001e5e13          	srli	t3,t3,0x1
 390:	000e0463          	beqz	t3,398 <.PC0>
 394:	fddff06f          	j	370 <bin_to_bcd+0xb0>

00000398 <.PC0>:
 398:	00a00513          	li	a0,10
 39c:	214000ef          	jal	ra,5b0 <putchar>
 3a0:	00d00513          	li	a0,13
 3a4:	20c000ef          	jal	ra,5b0 <putchar>
 3a8:	00012283          	lw	t0,0(sp)
 3ac:	00412303          	lw	t1,4(sp)
 3b0:	00812383          	lw	t2,8(sp)
 3b4:	00c12e03          	lw	t3,12(sp)
 3b8:	01012f03          	lw	t5,16(sp)
 3bc:	01412f83          	lw	t6,20(sp)
 3c0:	01812083          	lw	ra,24(sp)
 3c4:	01c10113          	addi	sp,sp,28
 3c8:	00008067          	ret
 3cc:	1941                	addi	s2,s2,-16
 3ce:	0000                	unimp
 3d0:	7200                	flw	fs0,32(a2)
 3d2:	7369                	lui	t1,0xffffa
 3d4:	01007663          	bgeu	zero,a6,3e0 <.PC0+0x48>
 3d8:	0000000f          	fence	unknown,unknown
 3dc:	7205                	lui	tp,0xfffe1
 3de:	3376                	fld	ft6,376(sp)
 3e0:	6932                	flw	fs2,12(sp)
 3e2:	7032                	flw	ft0,44(sp)
 3e4:	0030                	addi	a2,sp,8
	...

000003e8 <sqrt>:
 3e8:	004101b7          	lui	gp,0x410
 3ec:	00a1a223          	sw	a0,4(gp) # 410004 <SQRT_BASE+0x4>
 3f0:	00100513          	li	a0,1
 3f4:	00a1a623          	sw	a0,12(gp)
 3f8:	0001a623          	sw	zero,12(gp)
 3fc:	00100293          	li	t0,1
 400:	0141a303          	lw	t1,20(gp)
 404:	00537333          	and	t1,t1,t0
 408:	fe030ae3          	beqz	t1,3fc <sqrt+0x14>
 40c:	0101a503          	lw	a0,16(gp)
 410:	00008067          	ret
 414:	1941                	addi	s2,s2,-16
 416:	0000                	unimp
 418:	7200                	flw	fs0,32(a2)
 41a:	7369                	lui	t1,0xffffa
 41c:	01007663          	bgeu	zero,a6,428 <sqrt+0x40>
 420:	0000000f          	fence	unknown,unknown
 424:	7205                	lui	tp,0xfffe1
 426:	3376                	fld	ft6,376(sp)
 428:	6932                	flw	fs2,12(sp)
 42a:	7032                	flw	ft0,44(sp)
 42c:	0030                	addi	a2,sp,8
	...

00000430 <mult>:
 430:	ff410113          	addi	sp,sp,-12
 434:	00d12023          	sw	a3,0(sp)
 438:	00e12223          	sw	a4,4(sp)
 43c:	00f12423          	sw	a5,8(sp)
 440:	00050713          	mv	a4,a0
 444:	00058793          	mv	a5,a1
 448:	00000513          	li	a0,0
 44c:	0017f693          	andi	a3,a5,1
 450:	00068463          	beqz	a3,458 <mult+0x28>
 454:	00e50533          	add	a0,a0,a4
 458:	0017d793          	srli	a5,a5,0x1
 45c:	00171713          	slli	a4,a4,0x1
 460:	fe0796e3          	bnez	a5,44c <mult+0x1c>
 464:	00012683          	lw	a3,0(sp)
 468:	00412703          	lw	a4,4(sp)
 46c:	00812783          	lw	a5,8(sp)
 470:	00c10113          	addi	sp,sp,12
 474:	00008067          	ret

00000478 <mult_hw>:
 478:	004201b7          	lui	gp,0x420
 47c:	00a1a223          	sw	a0,4(gp) # 420004 <MULT_BASE+0x4>
 480:	00b1a423          	sw	a1,8(gp)
 484:	00100513          	li	a0,1
 488:	00a1a623          	sw	a0,12(gp)
 48c:	0001a623          	sw	zero,12(gp)
 490:	00100293          	li	t0,1
 494:	0141a303          	lw	t1,20(gp)
 498:	00537333          	and	t1,t1,t0
 49c:	fe030ae3          	beqz	t1,490 <mult_hw+0x18>
 4a0:	0101a503          	lw	a0,16(gp)
 4a4:	00008067          	ret
 4a8:	1941                	addi	s2,s2,-16
 4aa:	0000                	unimp
 4ac:	7200                	flw	fs0,32(a2)
 4ae:	7369                	lui	t1,0xffffa
 4b0:	01007663          	bgeu	zero,a6,4bc <mult_hw+0x44>
 4b4:	0000000f          	fence	unknown,unknown
 4b8:	7205                	lui	tp,0xfffe1
 4ba:	3376                	fld	ft6,376(sp)
 4bc:	6932                	flw	fs2,12(sp)
 4be:	7032                	flw	ft0,44(sp)
 4c0:	0030                	addi	a2,sp,8
	...

000004c4 <div>:
 4c4:	ff810113          	addi	sp,sp,-8
 4c8:	00d12023          	sw	a3,0(sp)
 4cc:	00c120a3          	sw	a2,1(sp)
 4d0:	00058613          	mv	a2,a1
 4d4:	00050593          	mv	a1,a0
 4d8:	fff00513          	li	a0,-1
 4dc:	02060c63          	beqz	a2,514 <div+0x50>
 4e0:	00100693          	li	a3,1
 4e4:	00b67a63          	bgeu	a2,a1,4f8 <div+0x34>
 4e8:	00c05863          	blez	a2,4f8 <div+0x34>
 4ec:	00161613          	slli	a2,a2,0x1
 4f0:	00169693          	slli	a3,a3,0x1
 4f4:	feb66ae3          	bltu	a2,a1,4e8 <div+0x24>
 4f8:	00000513          	li	a0,0
 4fc:	00c5e663          	bltu	a1,a2,508 <div+0x44>
 500:	40c585b3          	sub	a1,a1,a2
 504:	00d56533          	or	a0,a0,a3
 508:	0016d693          	srli	a3,a3,0x1
 50c:	00165613          	srli	a2,a2,0x1
 510:	fe0696e3          	bnez	a3,4fc <div+0x38>
 514:	00012683          	lw	a3,0(sp)
 518:	00112603          	lw	a2,1(sp)
 51c:	00810113          	addi	sp,sp,8
 520:	00008067          	ret

00000524 <div_hw>:
 524:	004301b7          	lui	gp,0x430
 528:	00a1a223          	sw	a0,4(gp) # 430004 <DIV_BASE+0x4>
 52c:	00b1a423          	sw	a1,8(gp)
 530:	00100513          	li	a0,1
 534:	00a1a623          	sw	a0,12(gp)
 538:	0001a623          	sw	zero,12(gp)
 53c:	00100293          	li	t0,1
 540:	0141a303          	lw	t1,20(gp)
 544:	00537333          	and	t1,t1,t0
 548:	fe030ae3          	beqz	t1,53c <div_hw+0x18>
 54c:	0101a503          	lw	a0,16(gp)
 550:	00008067          	ret
 554:	1941                	addi	s2,s2,-16
 556:	0000                	unimp
 558:	7200                	flw	fs0,32(a2)
 55a:	7369                	lui	t1,0xffffa
 55c:	01007663          	bgeu	zero,a6,568 <div_hw+0x44>
 560:	0000000f          	fence	unknown,unknown
 564:	7205                	lui	tp,0xfffe1
 566:	3376                	fld	ft6,376(sp)
 568:	6932                	flw	fs2,12(sp)
 56a:	7032                	flw	ft0,44(sp)
 56c:	0030                	addi	a2,sp,8
	...

00000570 <wait>:
 570:	ffc10113          	addi	sp,sp,-4
 574:	00512023          	sw	t0,0(sp)
 578:	00100293          	li	t0,1
 57c:	00a292b3          	sll	t0,t0,a0
 580:	fff28293          	addi	t0,t0,-1
 584:	fe029ee3          	bnez	t0,580 <wait+0x10>
 588:	00012283          	lw	t0,0(sp)
 58c:	00410113          	addi	sp,sp,4
 590:	00008067          	ret
 594:	1941                	addi	s2,s2,-16
 596:	0000                	unimp
 598:	7200                	flw	fs0,32(a2)
 59a:	7369                	lui	t1,0xffffa
 59c:	01007663          	bgeu	zero,a6,5a8 <wait+0x38>
 5a0:	0000000f          	fence	unknown,unknown
 5a4:	7205                	lui	tp,0xfffe1
 5a6:	3376                	fld	ft6,376(sp)
 5a8:	6932                	flw	fs2,12(sp)
 5aa:	7032                	flw	ft0,44(sp)
 5ac:	0030                	addi	a2,sp,8
	...

000005b0 <putchar>:
 5b0:	ff810113          	addi	sp,sp,-8
 5b4:	00512023          	sw	t0,0(sp)
 5b8:	00612223          	sw	t1,4(sp)
 5bc:	004001b7          	lui	gp,0x400
 5c0:	00a1a423          	sw	a0,8(gp) # 400008 <UART_BASE+0x8>
 5c4:	00100293          	li	t0,1
 5c8:	0051a823          	sw	t0,16(gp)
 5cc:	00000293          	li	t0,0
 5d0:	0051a823          	sw	t0,16(gp)
 5d4:	20000293          	li	t0,512
 5d8:	0101a303          	lw	t1,16(gp)
 5dc:	00537333          	and	t1,t1,t0
 5e0:	fe031ce3          	bnez	t1,5d8 <putchar+0x28>
 5e4:	00012283          	lw	t0,0(sp)
 5e8:	00412303          	lw	t1,4(sp)
 5ec:	00810113          	addi	sp,sp,8
 5f0:	00008067          	ret
 5f4:	1941                	addi	s2,s2,-16
 5f6:	0000                	unimp
 5f8:	7200                	flw	fs0,32(a2)
 5fa:	7369                	lui	t1,0xffffa
 5fc:	01007663          	bgeu	zero,a6,608 <putchar+0x58>
 600:	0000000f          	fence	unknown,unknown
 604:	7205                	lui	tp,0xfffe1
 606:	3376                	fld	ft6,376(sp)
 608:	6932                	flw	fs2,12(sp)
 60a:	7032                	flw	ft0,44(sp)
 60c:	0030                	addi	a2,sp,8
	...

00000610 <getchar>:
 610:	ffc10113          	addi	sp,sp,-4
 614:	00512023          	sw	t0,0(sp)
 618:	004001b7          	lui	gp,0x400
 61c:	0101a503          	lw	a0,16(gp) # 400010 <UART_BASE+0x10>
 620:	10057293          	andi	t0,a0,256
 624:	fe028ce3          	beqz	t0,61c <getchar+0xc>
 628:	00200293          	li	t0,2
 62c:	0051a823          	sw	t0,16(gp)
 630:	0081a503          	lw	a0,8(gp)
 634:	0ff57513          	zext.b	a0,a0
 638:	00012283          	lw	t0,0(sp)
 63c:	00410113          	addi	sp,sp,4
 640:	00008067          	ret
 644:	1941                	addi	s2,s2,-16
 646:	0000                	unimp
 648:	7200                	flw	fs0,32(a2)
 64a:	7369                	lui	t1,0xffffa
 64c:	01007663          	bgeu	zero,a6,658 <getchar+0x48>
 650:	0000000f          	fence	unknown,unknown
 654:	7205                	lui	tp,0xfffe1
 656:	3376                	fld	ft6,376(sp)
 658:	6932                	flw	fs2,12(sp)
 65a:	7032                	flw	ft0,44(sp)
 65c:	0030                	addi	a2,sp,8
